
fableos.kernel:     file format elf32-i386


Disassembly of section .multiboot.data:

00100000 <.multiboot.data>:
  100000:	02 b0 ad 1b 03 00    	add    0x31bad(%eax),%dh
  100006:	00 00                	add    %al,(%eax)
  100008:	fb                   	sti    
  100009:	4f                   	dec    %edi
  10000a:	52                   	push   %edx
  10000b:	e4                   	.byte 0xe4

Disassembly of section .multiboot.text:

0010000c <_start>:
  10000c:	0f 01 15 c8 00 10 00 	lgdtl  0x1000c8
  100013:	66 b8 10 00          	mov    $0x10,%ax
  100017:	8e d8                	mov    %eax,%ds
  100019:	8e c0                	mov    %eax,%es
  10001b:	8e e0                	mov    %eax,%fs
  10001d:	8e e8                	mov    %eax,%gs
  10001f:	8e d0                	mov    %eax,%ss
  100021:	ea 28 00 10 00 08 00 	ljmp   $0x8,$0x100028

00100028 <reload_cs>:
  100028:	fa                   	cli    
  100029:	66 b8 28 00          	mov    $0x28,%ax
  10002d:	0f 00 d8             	ltr    %ax
  100030:	bf 00 70 10 00       	mov    $0x107000,%edi
  100035:	be 00 00 00 00       	mov    $0x0,%esi
  10003a:	b9 fd 03 00 00       	mov    $0x3fd,%ecx
  10003f:	89 f2                	mov    %esi,%edx
  100041:	83 ca 03             	or     $0x3,%edx
  100044:	89 17                	mov    %edx,(%edi)
  100046:	81 c6 00 10 00 00    	add    $0x1000,%esi
  10004c:	83 c7 04             	add    $0x4,%edi
  10004f:	81 fe 00 00 10 00    	cmp    $0x100000,%esi
  100055:	e2 e8                	loop   10003f <reload_cs+0x17>
  100057:	c7 05 00 60 10 00 03 	movl   $0x107003,0x106000
  10005e:	70 10 00 
  100061:	c7 05 00 6c 10 00 03 	movl   $0x107003,0x106c00
  100068:	70 10 00 
  10006b:	c7 05 fc 6f 10 00 03 	movl   $0x106003,0x106ffc
  100072:	60 10 00 
  100075:	b9 00 60 10 00       	mov    $0x106000,%ecx
  10007a:	0f 22 d9             	mov    %ecx,%cr3
  10007d:	0f 20 c1             	mov    %cr0,%ecx
  100080:	81 c9 00 00 01 80    	or     $0x80010000,%ecx
  100086:	0f 22 c1             	mov    %ecx,%cr0
  100089:	8d 0d 35 11 10 c0    	lea    0xc0101135,%ecx
  10008f:	ff e1                	jmp    *%ecx

Disassembly of section .gdt:

00100098 <gdt_start>:
	...
  1000a0:	ff                   	(bad)  
  1000a1:	ff 00                	incl   (%eax)
  1000a3:	00 00                	add    %al,(%eax)
  1000a5:	9a cf 00 ff ff 00 00 	lcall  $0x0,$0xffff00cf
  1000ac:	00 92 cf 00 ff ff    	add    %dl,-0xff31(%edx)
  1000b2:	00 00                	add    %al,(%eax)
  1000b4:	00 fa                	add    %bh,%dl
  1000b6:	cf                   	iret   
  1000b7:	00 ff                	add    %bh,%bh
  1000b9:	ff 00                	incl   (%eax)
  1000bb:	00 00                	add    %al,(%eax)
  1000bd:	f2 cf                	repnz iret 
  1000bf:	00 9f 00 d0 00 10    	add    %bl,0x1000d000(%edi)
  1000c5:	89 00                	mov    %eax,(%eax)
	...

Disassembly of section .gdt_ptr:

001000c8 <gdt_ptr>:
  1000c8:	2f                   	das    
  1000c9:	00                   	.byte 0x0
  1000ca:	98                   	cwtl   
  1000cb:	00 10                	add    %dl,(%eax)
	...

Disassembly of section .tss:

001000d0 <tss>:
	...
  1000d8:	49                   	dec    %ecx
  1000d9:	c9                   	leave  
  1000da:	10 c0                	adc    %al,%al
  1000dc:	10 00                	adc    %al,(%eax)
  1000de:	00 00                	add    %al,(%eax)
  1000e0:	49                   	dec    %ecx
  1000e1:	09 11                	or     %edx,(%ecx)
  1000e3:	c0 10 00             	rclb   $0x0,(%eax)
  1000e6:	00 00                	add    %al,(%eax)
  1000e8:	49                   	dec    %ecx
  1000e9:	49                   	dec    %ecx
  1000ea:	11 c0                	adc    %eax,%eax
  1000ec:	10 00                	adc    %al,(%eax)
	...

Disassembly of section .text:

c0101000 <deregister_tm_clones>:
c0101000:	b8 1c 40 10 c0       	mov    $0xc010401c,%eax
c0101005:	3d 1c 40 10 c0       	cmp    $0xc010401c,%eax
c010100a:	74 24                	je     c0101030 <deregister_tm_clones+0x30>
c010100c:	b8 00 00 00 00       	mov    $0x0,%eax
c0101011:	85 c0                	test   %eax,%eax
c0101013:	74 1b                	je     c0101030 <deregister_tm_clones+0x30>
c0101015:	55                   	push   %ebp
c0101016:	89 e5                	mov    %esp,%ebp
c0101018:	83 ec 14             	sub    $0x14,%esp
c010101b:	68 1c 40 10 c0       	push   $0xc010401c
c0101020:	ff d0                	call   *%eax
c0101022:	83 c4 10             	add    $0x10,%esp
c0101025:	c9                   	leave  
c0101026:	c3                   	ret    
c0101027:	2e 8d b4 26 00 00 00 	lea    %cs:0x0(%esi,%eiz,1),%esi
c010102e:	00 
c010102f:	90                   	nop
c0101030:	c3                   	ret    
c0101031:	2e 8d b4 26 00 00 00 	lea    %cs:0x0(%esi,%eiz,1),%esi
c0101038:	00 
c0101039:	8d b4 26 00 00 00 00 	lea    0x0(%esi,%eiz,1),%esi

c0101040 <register_tm_clones>:
c0101040:	b8 1c 40 10 c0       	mov    $0xc010401c,%eax
c0101045:	2d 1c 40 10 c0       	sub    $0xc010401c,%eax
c010104a:	89 c2                	mov    %eax,%edx
c010104c:	c1 e8 1f             	shr    $0x1f,%eax
c010104f:	c1 fa 02             	sar    $0x2,%edx
c0101052:	01 d0                	add    %edx,%eax
c0101054:	d1 f8                	sar    %eax
c0101056:	74 20                	je     c0101078 <register_tm_clones+0x38>
c0101058:	ba 00 00 00 00       	mov    $0x0,%edx
c010105d:	85 d2                	test   %edx,%edx
c010105f:	74 17                	je     c0101078 <register_tm_clones+0x38>
c0101061:	55                   	push   %ebp
c0101062:	89 e5                	mov    %esp,%ebp
c0101064:	83 ec 10             	sub    $0x10,%esp
c0101067:	50                   	push   %eax
c0101068:	68 1c 40 10 c0       	push   $0xc010401c
c010106d:	ff d2                	call   *%edx
c010106f:	83 c4 10             	add    $0x10,%esp
c0101072:	c9                   	leave  
c0101073:	c3                   	ret    
c0101074:	8d 74 26 00          	lea    0x0(%esi,%eiz,1),%esi
c0101078:	c3                   	ret    
c0101079:	8d b4 26 00 00 00 00 	lea    0x0(%esi,%eiz,1),%esi

c0101080 <__do_global_dtors_aux>:
c0101080:	80 3d 00 50 10 c0 00 	cmpb   $0x0,0xc0105000
c0101087:	75 67                	jne    c01010f0 <__do_global_dtors_aux+0x70>
c0101089:	55                   	push   %ebp
c010108a:	89 e5                	mov    %esp,%ebp
c010108c:	56                   	push   %esi
c010108d:	be 14 40 10 c0       	mov    $0xc0104014,%esi
c0101092:	53                   	push   %ebx
c0101093:	bb 18 40 10 c0       	mov    $0xc0104018,%ebx
c0101098:	a1 04 50 10 c0       	mov    0xc0105004,%eax
c010109d:	81 eb 14 40 10 c0    	sub    $0xc0104014,%ebx
c01010a3:	c1 fb 02             	sar    $0x2,%ebx
c01010a6:	83 eb 01             	sub    $0x1,%ebx
c01010a9:	39 d8                	cmp    %ebx,%eax
c01010ab:	73 17                	jae    c01010c4 <__do_global_dtors_aux+0x44>
c01010ad:	8d 76 00             	lea    0x0(%esi),%esi
c01010b0:	83 c0 01             	add    $0x1,%eax
c01010b3:	a3 04 50 10 c0       	mov    %eax,0xc0105004
c01010b8:	ff 14 86             	call   *(%esi,%eax,4)
c01010bb:	a1 04 50 10 c0       	mov    0xc0105004,%eax
c01010c0:	39 d8                	cmp    %ebx,%eax
c01010c2:	72 ec                	jb     c01010b0 <__do_global_dtors_aux+0x30>
c01010c4:	e8 37 ff ff ff       	call   c0101000 <deregister_tm_clones>
c01010c9:	b8 00 00 00 00       	mov    $0x0,%eax
c01010ce:	85 c0                	test   %eax,%eax
c01010d0:	74 10                	je     c01010e2 <__do_global_dtors_aux+0x62>
c01010d2:	83 ec 0c             	sub    $0xc,%esp
c01010d5:	68 54 32 10 c0       	push   $0xc0103254
c01010da:	e8 21 ef ef 3f       	call   0 <tss_base_high>
c01010df:	83 c4 10             	add    $0x10,%esp
c01010e2:	c6 05 00 50 10 c0 01 	movb   $0x1,0xc0105000
c01010e9:	8d 65 f8             	lea    -0x8(%ebp),%esp
c01010ec:	5b                   	pop    %ebx
c01010ed:	5e                   	pop    %esi
c01010ee:	5d                   	pop    %ebp
c01010ef:	c3                   	ret    
c01010f0:	c3                   	ret    
c01010f1:	2e 8d b4 26 00 00 00 	lea    %cs:0x0(%esi,%eiz,1),%esi
c01010f8:	00 
c01010f9:	8d b4 26 00 00 00 00 	lea    0x0(%esi,%eiz,1),%esi

c0101100 <frame_dummy>:
c0101100:	b8 00 00 00 00       	mov    $0x0,%eax
c0101105:	85 c0                	test   %eax,%eax
c0101107:	74 27                	je     c0101130 <frame_dummy+0x30>
c0101109:	55                   	push   %ebp
c010110a:	89 e5                	mov    %esp,%ebp
c010110c:	83 ec 10             	sub    $0x10,%esp
c010110f:	68 08 50 10 c0       	push   $0xc0105008
c0101114:	68 54 32 10 c0       	push   $0xc0103254
c0101119:	e8 e2 ee ef 3f       	call   0 <tss_base_high>
c010111e:	83 c4 10             	add    $0x10,%esp
c0101121:	c9                   	leave  
c0101122:	e9 19 ff ff ff       	jmp    c0101040 <register_tm_clones>
c0101127:	2e 8d b4 26 00 00 00 	lea    %cs:0x0(%esi,%eiz,1),%esi
c010112e:	00 
c010112f:	90                   	nop
c0101130:	e9 0b ff ff ff       	jmp    c0101040 <register_tm_clones>
c0101135:	0f 20 d9             	mov    %cr3,%ecx
c0101138:	0f 22 d9             	mov    %ecx,%cr3
c010113b:	bc 49 c9 10 c0       	mov    $0xc010c949,%esp
c0101140:	53                   	push   %ebx
c0101141:	50                   	push   %eax
c0101142:	e8 34 03 00 00       	call   c010147b <kernel_main>
c0101147:	fa                   	cli    
c0101148:	f4                   	hlt    
c0101149:	eb fd                	jmp    c0101148 <frame_dummy+0x48>

c010114b <_ZL15vga_entry_color9vga_colorS_>:
c010114b:	55                   	push   %ebp
c010114c:	89 e5                	mov    %esp,%ebp
c010114e:	8b 45 0c             	mov    0xc(%ebp),%eax
c0101151:	c1 e0 04             	shl    $0x4,%eax
c0101154:	89 c2                	mov    %eax,%edx
c0101156:	8b 45 08             	mov    0x8(%ebp),%eax
c0101159:	09 d0                	or     %edx,%eax
c010115b:	5d                   	pop    %ebp
c010115c:	c3                   	ret    

c010115d <_ZL9vga_entryhh>:
c010115d:	55                   	push   %ebp
c010115e:	89 e5                	mov    %esp,%ebp
c0101160:	83 ec 08             	sub    $0x8,%esp
c0101163:	8b 55 08             	mov    0x8(%ebp),%edx
c0101166:	8b 45 0c             	mov    0xc(%ebp),%eax
c0101169:	88 55 fc             	mov    %dl,-0x4(%ebp)
c010116c:	88 45 f8             	mov    %al,-0x8(%ebp)
c010116f:	0f b6 55 fc          	movzbl -0x4(%ebp),%edx
c0101173:	0f b6 45 f8          	movzbl -0x8(%ebp),%eax
c0101177:	c1 e0 08             	shl    $0x8,%eax
c010117a:	09 d0                	or     %edx,%eax
c010117c:	c9                   	leave  
c010117d:	c3                   	ret    

c010117e <terminal_initialize>:
c010117e:	55                   	push   %ebp
c010117f:	89 e5                	mov    %esp,%ebp
c0101181:	53                   	push   %ebx
c0101182:	83 ec 10             	sub    $0x10,%esp
c0101185:	c7 05 00 80 10 c0 00 	movl   $0x0,0xc0108000
c010118c:	00 00 00 
c010118f:	c7 05 04 80 10 c0 00 	movl   $0x0,0xc0108004
c0101196:	00 00 00 
c0101199:	6a 00                	push   $0x0
c010119b:	6a 07                	push   $0x7
c010119d:	e8 a9 ff ff ff       	call   c010114b <_ZL15vga_entry_color9vga_colorS_>
c01011a2:	83 c4 08             	add    $0x8,%esp
c01011a5:	a2 08 80 10 c0       	mov    %al,0xc0108008
c01011aa:	c7 05 0c 80 10 c0 00 	movl   $0xb8000,0xc010800c
c01011b1:	80 0b 00 
c01011b4:	c7 45 f8 00 00 00 00 	movl   $0x0,-0x8(%ebp)
c01011bb:	eb 54                	jmp    c0101211 <terminal_initialize+0x93>
c01011bd:	c7 45 f4 00 00 00 00 	movl   $0x0,-0xc(%ebp)
c01011c4:	eb 41                	jmp    c0101207 <terminal_initialize+0x89>
c01011c6:	8b 55 f8             	mov    -0x8(%ebp),%edx
c01011c9:	89 d0                	mov    %edx,%eax
c01011cb:	c1 e0 02             	shl    $0x2,%eax
c01011ce:	01 d0                	add    %edx,%eax
c01011d0:	c1 e0 04             	shl    $0x4,%eax
c01011d3:	89 c2                	mov    %eax,%edx
c01011d5:	8b 45 f4             	mov    -0xc(%ebp),%eax
c01011d8:	01 d0                	add    %edx,%eax
c01011da:	89 45 f0             	mov    %eax,-0x10(%ebp)
c01011dd:	0f b6 05 08 80 10 c0 	movzbl 0xc0108008,%eax
c01011e4:	0f b6 c0             	movzbl %al,%eax
c01011e7:	8b 15 0c 80 10 c0    	mov    0xc010800c,%edx
c01011ed:	8b 4d f0             	mov    -0x10(%ebp),%ecx
c01011f0:	01 c9                	add    %ecx,%ecx
c01011f2:	8d 1c 0a             	lea    (%edx,%ecx,1),%ebx
c01011f5:	50                   	push   %eax
c01011f6:	6a 20                	push   $0x20
c01011f8:	e8 60 ff ff ff       	call   c010115d <_ZL9vga_entryhh>
c01011fd:	83 c4 08             	add    $0x8,%esp
c0101200:	66 89 03             	mov    %ax,(%ebx)
c0101203:	83 45 f4 01          	addl   $0x1,-0xc(%ebp)
c0101207:	83 7d f4 4f          	cmpl   $0x4f,-0xc(%ebp)
c010120b:	76 b9                	jbe    c01011c6 <terminal_initialize+0x48>
c010120d:	83 45 f8 01          	addl   $0x1,-0x8(%ebp)
c0101211:	83 7d f8 18          	cmpl   $0x18,-0x8(%ebp)
c0101215:	76 a6                	jbe    c01011bd <terminal_initialize+0x3f>
c0101217:	90                   	nop
c0101218:	90                   	nop
c0101219:	8b 5d fc             	mov    -0x4(%ebp),%ebx
c010121c:	c9                   	leave  
c010121d:	c3                   	ret    

c010121e <_Z17terminal_setcolorh>:
c010121e:	55                   	push   %ebp
c010121f:	89 e5                	mov    %esp,%ebp
c0101221:	83 ec 04             	sub    $0x4,%esp
c0101224:	8b 45 08             	mov    0x8(%ebp),%eax
c0101227:	88 45 fc             	mov    %al,-0x4(%ebp)
c010122a:	0f b6 45 fc          	movzbl -0x4(%ebp),%eax
c010122e:	a2 08 80 10 c0       	mov    %al,0xc0108008
c0101233:	90                   	nop
c0101234:	c9                   	leave  
c0101235:	c3                   	ret    

c0101236 <_Z19terminal_putentryathhmm>:
c0101236:	55                   	push   %ebp
c0101237:	89 e5                	mov    %esp,%ebp
c0101239:	53                   	push   %ebx
c010123a:	83 ec 18             	sub    $0x18,%esp
c010123d:	8b 55 08             	mov    0x8(%ebp),%edx
c0101240:	8b 45 0c             	mov    0xc(%ebp),%eax
c0101243:	88 55 e8             	mov    %dl,-0x18(%ebp)
c0101246:	88 45 e4             	mov    %al,-0x1c(%ebp)
c0101249:	8b 55 14             	mov    0x14(%ebp),%edx
c010124c:	89 d0                	mov    %edx,%eax
c010124e:	c1 e0 02             	shl    $0x2,%eax
c0101251:	01 d0                	add    %edx,%eax
c0101253:	c1 e0 04             	shl    $0x4,%eax
c0101256:	89 c2                	mov    %eax,%edx
c0101258:	8b 45 10             	mov    0x10(%ebp),%eax
c010125b:	01 d0                	add    %edx,%eax
c010125d:	89 45 f8             	mov    %eax,-0x8(%ebp)
c0101260:	0f b6 55 e4          	movzbl -0x1c(%ebp),%edx
c0101264:	0f b6 45 e8          	movzbl -0x18(%ebp),%eax
c0101268:	8b 0d 0c 80 10 c0    	mov    0xc010800c,%ecx
c010126e:	8b 5d f8             	mov    -0x8(%ebp),%ebx
c0101271:	01 db                	add    %ebx,%ebx
c0101273:	01 cb                	add    %ecx,%ebx
c0101275:	52                   	push   %edx
c0101276:	50                   	push   %eax
c0101277:	e8 e1 fe ff ff       	call   c010115d <_ZL9vga_entryhh>
c010127c:	83 c4 08             	add    $0x8,%esp
c010127f:	66 89 03             	mov    %ax,(%ebx)
c0101282:	90                   	nop
c0101283:	8b 5d fc             	mov    -0x4(%ebp),%ebx
c0101286:	c9                   	leave  
c0101287:	c3                   	ret    

c0101288 <_Z15terminal_scrolli>:
c0101288:	55                   	push   %ebp
c0101289:	89 e5                	mov    %esp,%ebp
c010128b:	83 ec 20             	sub    $0x20,%esp
c010128e:	83 7d 08 00          	cmpl   $0x0,0x8(%ebp)
c0101292:	0f 8e a8 00 00 00    	jle    c0101340 <_Z15terminal_scrolli+0xb8>
c0101298:	8b 45 08             	mov    0x8(%ebp),%eax
c010129b:	83 f8 18             	cmp    $0x18,%eax
c010129e:	0f 87 9c 00 00 00    	ja     c0101340 <_Z15terminal_scrolli+0xb8>
c01012a4:	c7 45 f4 00 80 0b 00 	movl   $0xb8000,-0xc(%ebp)
c01012ab:	8b 45 08             	mov    0x8(%ebp),%eax
c01012ae:	6b c0 b0             	imul   $0xffffffb0,%eax,%eax
c01012b1:	05 d0 07 00 00       	add    $0x7d0,%eax
c01012b6:	89 45 f0             	mov    %eax,-0x10(%ebp)
c01012b9:	c7 45 fc 00 00 00 00 	movl   $0x0,-0x4(%ebp)
c01012c0:	eb 31                	jmp    c01012f3 <_Z15terminal_scrolli+0x6b>
c01012c2:	8b 55 08             	mov    0x8(%ebp),%edx
c01012c5:	89 d0                	mov    %edx,%eax
c01012c7:	c1 e0 02             	shl    $0x2,%eax
c01012ca:	01 d0                	add    %edx,%eax
c01012cc:	c1 e0 04             	shl    $0x4,%eax
c01012cf:	89 c2                	mov    %eax,%edx
c01012d1:	8b 45 fc             	mov    -0x4(%ebp),%eax
c01012d4:	01 d0                	add    %edx,%eax
c01012d6:	8d 14 00             	lea    (%eax,%eax,1),%edx
c01012d9:	8b 45 f4             	mov    -0xc(%ebp),%eax
c01012dc:	01 d0                	add    %edx,%eax
c01012de:	8b 55 fc             	mov    -0x4(%ebp),%edx
c01012e1:	8d 0c 12             	lea    (%edx,%edx,1),%ecx
c01012e4:	8b 55 f4             	mov    -0xc(%ebp),%edx
c01012e7:	01 ca                	add    %ecx,%edx
c01012e9:	0f b7 00             	movzwl (%eax),%eax
c01012ec:	66 89 02             	mov    %ax,(%edx)
c01012ef:	83 45 fc 01          	addl   $0x1,-0x4(%ebp)
c01012f3:	8b 45 fc             	mov    -0x4(%ebp),%eax
c01012f6:	3b 45 f0             	cmp    -0x10(%ebp),%eax
c01012f9:	72 c7                	jb     c01012c2 <_Z15terminal_scrolli+0x3a>
c01012fb:	8b 45 f0             	mov    -0x10(%ebp),%eax
c01012fe:	89 45 ec             	mov    %eax,-0x14(%ebp)
c0101301:	c7 45 e8 d0 07 00 00 	movl   $0x7d0,-0x18(%ebp)
c0101308:	6a 07                	push   $0x7
c010130a:	6a 20                	push   $0x20
c010130c:	e8 4c fe ff ff       	call   c010115d <_ZL9vga_entryhh>
c0101311:	83 c4 08             	add    $0x8,%esp
c0101314:	66 89 45 e6          	mov    %ax,-0x1a(%ebp)
c0101318:	8b 45 ec             	mov    -0x14(%ebp),%eax
c010131b:	89 45 f8             	mov    %eax,-0x8(%ebp)
c010131e:	eb 16                	jmp    c0101336 <_Z15terminal_scrolli+0xae>
c0101320:	8b 45 f8             	mov    -0x8(%ebp),%eax
c0101323:	8d 14 00             	lea    (%eax,%eax,1),%edx
c0101326:	8b 45 f4             	mov    -0xc(%ebp),%eax
c0101329:	01 c2                	add    %eax,%edx
c010132b:	0f b7 45 e6          	movzwl -0x1a(%ebp),%eax
c010132f:	66 89 02             	mov    %ax,(%edx)
c0101332:	83 45 f8 01          	addl   $0x1,-0x8(%ebp)
c0101336:	8b 45 f8             	mov    -0x8(%ebp),%eax
c0101339:	3b 45 e8             	cmp    -0x18(%ebp),%eax
c010133c:	72 e2                	jb     c0101320 <_Z15terminal_scrolli+0x98>
c010133e:	eb 01                	jmp    c0101341 <_Z15terminal_scrolli+0xb9>
c0101340:	90                   	nop
c0101341:	c9                   	leave  
c0101342:	c3                   	ret    

c0101343 <_Z25terminal_delete_last_linev>:
c0101343:	55                   	push   %ebp
c0101344:	89 e5                	mov    %esp,%ebp
c0101346:	83 ec 10             	sub    $0x10,%esp
c0101349:	c7 45 f8 00 8f 0b 00 	movl   $0xb8f00,-0x8(%ebp)
c0101350:	6a 07                	push   $0x7
c0101352:	6a 20                	push   $0x20
c0101354:	e8 04 fe ff ff       	call   c010115d <_ZL9vga_entryhh>
c0101359:	83 c4 08             	add    $0x8,%esp
c010135c:	66 89 45 f6          	mov    %ax,-0xa(%ebp)
c0101360:	c7 45 fc 00 00 00 00 	movl   $0x0,-0x4(%ebp)
c0101367:	eb 16                	jmp    c010137f <_Z25terminal_delete_last_linev+0x3c>
c0101369:	8b 45 fc             	mov    -0x4(%ebp),%eax
c010136c:	8d 14 00             	lea    (%eax,%eax,1),%edx
c010136f:	8b 45 f8             	mov    -0x8(%ebp),%eax
c0101372:	01 c2                	add    %eax,%edx
c0101374:	0f b7 45 f6          	movzwl -0xa(%ebp),%eax
c0101378:	66 89 02             	mov    %ax,(%edx)
c010137b:	83 45 fc 01          	addl   $0x1,-0x4(%ebp)
c010137f:	83 7d fc 4f          	cmpl   $0x4f,-0x4(%ebp)
c0101383:	76 e4                	jbe    c0101369 <_Z25terminal_delete_last_linev+0x26>
c0101385:	90                   	nop
c0101386:	90                   	nop
c0101387:	c9                   	leave  
c0101388:	c3                   	ret    

c0101389 <terminal_putchar>:
c0101389:	55                   	push   %ebp
c010138a:	89 e5                	mov    %esp,%ebp
c010138c:	53                   	push   %ebx
c010138d:	83 ec 14             	sub    $0x14,%esp
c0101390:	8b 45 08             	mov    0x8(%ebp),%eax
c0101393:	88 45 e8             	mov    %al,-0x18(%ebp)
c0101396:	0f b6 45 e8          	movzbl -0x18(%ebp),%eax
c010139a:	88 45 fb             	mov    %al,-0x5(%ebp)
c010139d:	8b 1d 00 80 10 c0    	mov    0xc0108000,%ebx
c01013a3:	8b 0d 04 80 10 c0    	mov    0xc0108004,%ecx
c01013a9:	0f b6 05 08 80 10 c0 	movzbl 0xc0108008,%eax
c01013b0:	0f b6 d0             	movzbl %al,%edx
c01013b3:	0f b6 45 fb          	movzbl -0x5(%ebp),%eax
c01013b7:	53                   	push   %ebx
c01013b8:	51                   	push   %ecx
c01013b9:	52                   	push   %edx
c01013ba:	50                   	push   %eax
c01013bb:	e8 76 fe ff ff       	call   c0101236 <_Z19terminal_putentryathhmm>
c01013c0:	83 c4 10             	add    $0x10,%esp
c01013c3:	a1 04 80 10 c0       	mov    0xc0108004,%eax
c01013c8:	83 c0 01             	add    $0x1,%eax
c01013cb:	a3 04 80 10 c0       	mov    %eax,0xc0108004
c01013d0:	a1 04 80 10 c0       	mov    0xc0108004,%eax
c01013d5:	83 f8 50             	cmp    $0x50,%eax
c01013d8:	0f 94 c0             	sete   %al
c01013db:	84 c0                	test   %al,%al
c01013dd:	74 3a                	je     c0101419 <terminal_putchar+0x90>
c01013df:	c7 05 04 80 10 c0 00 	movl   $0x0,0xc0108004
c01013e6:	00 00 00 
c01013e9:	a1 00 80 10 c0       	mov    0xc0108000,%eax
c01013ee:	83 c0 01             	add    $0x1,%eax
c01013f1:	a3 00 80 10 c0       	mov    %eax,0xc0108000
c01013f6:	a1 00 80 10 c0       	mov    0xc0108000,%eax
c01013fb:	83 f8 19             	cmp    $0x19,%eax
c01013fe:	0f 94 c0             	sete   %al
c0101401:	84 c0                	test   %al,%al
c0101403:	74 14                	je     c0101419 <terminal_putchar+0x90>
c0101405:	6a 01                	push   $0x1
c0101407:	e8 7c fe ff ff       	call   c0101288 <_Z15terminal_scrolli>
c010140c:	83 c4 04             	add    $0x4,%esp
c010140f:	c7 05 00 80 10 c0 18 	movl   $0x18,0xc0108000
c0101416:	00 00 00 
c0101419:	90                   	nop
c010141a:	8b 5d fc             	mov    -0x4(%ebp),%ebx
c010141d:	c9                   	leave  
c010141e:	c3                   	ret    

c010141f <terminal_write>:
c010141f:	55                   	push   %ebp
c0101420:	89 e5                	mov    %esp,%ebp
c0101422:	83 ec 10             	sub    $0x10,%esp
c0101425:	c7 45 fc 00 00 00 00 	movl   $0x0,-0x4(%ebp)
c010142c:	eb 1b                	jmp    c0101449 <terminal_write+0x2a>
c010142e:	8b 55 08             	mov    0x8(%ebp),%edx
c0101431:	8b 45 fc             	mov    -0x4(%ebp),%eax
c0101434:	01 d0                	add    %edx,%eax
c0101436:	0f b6 00             	movzbl (%eax),%eax
c0101439:	0f be c0             	movsbl %al,%eax
c010143c:	50                   	push   %eax
c010143d:	e8 47 ff ff ff       	call   c0101389 <terminal_putchar>
c0101442:	83 c4 04             	add    $0x4,%esp
c0101445:	83 45 fc 01          	addl   $0x1,-0x4(%ebp)
c0101449:	8b 45 fc             	mov    -0x4(%ebp),%eax
c010144c:	3b 45 0c             	cmp    0xc(%ebp),%eax
c010144f:	72 dd                	jb     c010142e <terminal_write+0xf>
c0101451:	90                   	nop
c0101452:	90                   	nop
c0101453:	c9                   	leave  
c0101454:	c3                   	ret    

c0101455 <terminal_writestring>:
c0101455:	55                   	push   %ebp
c0101456:	89 e5                	mov    %esp,%ebp
c0101458:	83 ec 08             	sub    $0x8,%esp
c010145b:	83 ec 0c             	sub    $0xc,%esp
c010145e:	ff 75 08             	push   0x8(%ebp)
c0101461:	e8 bc 12 00 00       	call   c0102722 <strlen>
c0101466:	83 c4 10             	add    $0x10,%esp
c0101469:	83 ec 08             	sub    $0x8,%esp
c010146c:	50                   	push   %eax
c010146d:	ff 75 08             	push   0x8(%ebp)
c0101470:	e8 aa ff ff ff       	call   c010141f <terminal_write>
c0101475:	83 c4 10             	add    $0x10,%esp
c0101478:	90                   	nop
c0101479:	c9                   	leave  
c010147a:	c3                   	ret    

c010147b <kernel_main>:
c010147b:	55                   	push   %ebp
c010147c:	89 e5                	mov    %esp,%ebp
c010147e:	83 ec 08             	sub    $0x8,%esp
c0101481:	e8 f8 fc ff ff       	call   c010117e <terminal_initialize>
c0101486:	83 ec 0c             	sub    $0xc,%esp
c0101489:	68 0c 30 10 c0       	push   $0xc010300c
c010148e:	e8 cd 0e 00 00       	call   c0102360 <printf>
c0101493:	83 c4 10             	add    $0x10,%esp
c0101496:	83 ec 0c             	sub    $0xc,%esp
c0101499:	ff 75 0c             	push   0xc(%ebp)
c010149c:	e8 ca 04 00 00       	call   c010196b <_Z8pmm_initP14multiboot_info>
c01014a1:	83 c4 10             	add    $0x10,%esp
c01014a4:	e8 93 08 00 00       	call   c0101d3c <_Z8vma_initv>
c01014a9:	e8 8d 00 00 00       	call   c010153b <idt_init>
c01014ae:	e8 0f 03 00 00       	call   c01017c2 <_ZN4APIC11enable_apicEv>
c01014b3:	e8 97 03 00 00       	call   c010184f <_ZN4APIC11disable_picEv>
c01014b8:	83 ec 08             	sub    $0x8,%esp
c01014bb:	6a 03                	push   $0x3
c01014bd:	68 e8 03 00 00       	push   $0x3e8
c01014c2:	e8 c4 03 00 00       	call   c010188b <_ZN4APIC16setup_apic_timerEmm>
c01014c7:	83 c4 10             	add    $0x10,%esp
c01014ca:	83 ec 0c             	sub    $0xc,%esp
c01014cd:	68 25 30 10 c0       	push   $0xc0103025
c01014d2:	e8 89 0e 00 00       	call   c0102360 <printf>
c01014d7:	83 c4 10             	add    $0x10,%esp
c01014da:	e8 38 0d 00 00       	call   c0102217 <_Z21handle_keyboard_inputv>
c01014df:	f4                   	hlt    
c01014e0:	90                   	nop
c01014e1:	eb f7                	jmp    c01014da <kernel_main+0x5f>

c01014e3 <idt_set_descriptor>:
c01014e3:	55                   	push   %ebp
c01014e4:	89 e5                	mov    %esp,%ebp
c01014e6:	83 ec 18             	sub    $0x18,%esp
c01014e9:	8b 55 08             	mov    0x8(%ebp),%edx
c01014ec:	8b 45 10             	mov    0x10(%ebp),%eax
c01014ef:	88 55 ec             	mov    %dl,-0x14(%ebp)
c01014f2:	88 45 e8             	mov    %al,-0x18(%ebp)
c01014f5:	0f b6 45 ec          	movzbl -0x14(%ebp),%eax
c01014f9:	c1 e0 03             	shl    $0x3,%eax
c01014fc:	05 10 80 10 c0       	add    $0xc0108010,%eax
c0101501:	89 45 fc             	mov    %eax,-0x4(%ebp)
c0101504:	8b 45 0c             	mov    0xc(%ebp),%eax
c0101507:	89 c2                	mov    %eax,%edx
c0101509:	8b 45 fc             	mov    -0x4(%ebp),%eax
c010150c:	66 89 10             	mov    %dx,(%eax)
c010150f:	8b 45 fc             	mov    -0x4(%ebp),%eax
c0101512:	66 c7 40 02 08 00    	movw   $0x8,0x2(%eax)
c0101518:	8b 45 fc             	mov    -0x4(%ebp),%eax
c010151b:	0f b6 55 e8          	movzbl -0x18(%ebp),%edx
c010151f:	88 50 05             	mov    %dl,0x5(%eax)
c0101522:	8b 45 0c             	mov    0xc(%ebp),%eax
c0101525:	c1 e8 10             	shr    $0x10,%eax
c0101528:	89 c2                	mov    %eax,%edx
c010152a:	8b 45 fc             	mov    -0x4(%ebp),%eax
c010152d:	66 89 50 06          	mov    %dx,0x6(%eax)
c0101531:	8b 45 fc             	mov    -0x4(%ebp),%eax
c0101534:	c6 40 04 00          	movb   $0x0,0x4(%eax)
c0101538:	90                   	nop
c0101539:	c9                   	leave  
c010153a:	c3                   	ret    

c010153b <idt_init>:
c010153b:	55                   	push   %ebp
c010153c:	89 e5                	mov    %esp,%ebp
c010153e:	83 ec 10             	sub    $0x10,%esp
c0101541:	b8 10 80 10 c0       	mov    $0xc0108010,%eax
c0101546:	a3 12 88 10 c0       	mov    %eax,0xc0108812
c010154b:	66 c7 05 10 88 10 c0 	movw   $0x7ff,0xc0108810
c0101552:	ff 07 
c0101554:	c6 45 ff 00          	movb   $0x0,-0x1(%ebp)
c0101558:	eb 28                	jmp    c0101582 <idt_init+0x47>
c010155a:	0f b6 45 ff          	movzbl -0x1(%ebp),%eax
c010155e:	8b 14 85 4c 28 10 c0 	mov    -0x3fefd7b4(,%eax,4),%edx
c0101565:	0f b6 45 ff          	movzbl -0x1(%ebp),%eax
c0101569:	68 8e 00 00 00       	push   $0x8e
c010156e:	52                   	push   %edx
c010156f:	50                   	push   %eax
c0101570:	e8 6e ff ff ff       	call   c01014e3 <idt_set_descriptor>
c0101575:	83 c4 0c             	add    $0xc,%esp
c0101578:	0f b6 45 ff          	movzbl -0x1(%ebp),%eax
c010157c:	83 c0 01             	add    $0x1,%eax
c010157f:	88 45 ff             	mov    %al,-0x1(%ebp)
c0101582:	80 7d ff 1f          	cmpb   $0x1f,-0x1(%ebp)
c0101586:	76 d2                	jbe    c010155a <idt_init+0x1f>
c0101588:	c6 45 fe 00          	movb   $0x0,-0x2(%ebp)
c010158c:	eb 2e                	jmp    c01015bc <idt_init+0x81>
c010158e:	0f b6 45 fe          	movzbl -0x2(%ebp),%eax
c0101592:	8b 14 85 7c 29 10 c0 	mov    -0x3fefd684(,%eax,4),%edx
c0101599:	0f b6 45 fe          	movzbl -0x2(%ebp),%eax
c010159d:	83 c0 20             	add    $0x20,%eax
c01015a0:	0f b6 c0             	movzbl %al,%eax
c01015a3:	68 8e 00 00 00       	push   $0x8e
c01015a8:	52                   	push   %edx
c01015a9:	50                   	push   %eax
c01015aa:	e8 34 ff ff ff       	call   c01014e3 <idt_set_descriptor>
c01015af:	83 c4 0c             	add    $0xc,%esp
c01015b2:	0f b6 45 fe          	movzbl -0x2(%ebp),%eax
c01015b6:	83 c0 01             	add    $0x1,%eax
c01015b9:	88 45 fe             	mov    %al,-0x2(%ebp)
c01015bc:	80 7d fe 0f          	cmpb   $0xf,-0x2(%ebp)
c01015c0:	76 cc                	jbe    c010158e <idt_init+0x53>
c01015c2:	0f 01 1d 10 88 10 c0 	lidtl  0xc0108810
c01015c9:	fb                   	sti    
c01015ca:	90                   	nop
c01015cb:	c9                   	leave  
c01015cc:	c3                   	ret    

c01015cd <exception_handler>:
c01015cd:	55                   	push   %ebp
c01015ce:	89 e5                	mov    %esp,%ebp
c01015d0:	fa                   	cli    
c01015d1:	f4                   	hlt    
c01015d2:	90                   	nop
c01015d3:	5d                   	pop    %ebp
c01015d4:	c3                   	ret    

c01015d5 <irq_handler>:
c01015d5:	55                   	push   %ebp
c01015d6:	89 e5                	mov    %esp,%ebp
c01015d8:	83 ec 08             	sub    $0x8,%esp
c01015db:	e8 96 02 00 00       	call   c0101876 <_ZN4APIC8send_eoiEv>
c01015e0:	83 7d 08 01          	cmpl   $0x1,0x8(%ebp)
c01015e4:	75 07                	jne    c01015ed <irq_handler+0x18>
c01015e6:	e8 42 0b 00 00       	call   c010212d <keyboard_handler>
c01015eb:	eb 01                	jmp    c01015ee <irq_handler+0x19>
c01015ed:	90                   	nop
c01015ee:	90                   	nop
c01015ef:	c9                   	leave  
c01015f0:	c3                   	ret    

c01015f1 <_ZL4outbth>:
c01015f1:	55                   	push   %ebp
c01015f2:	89 e5                	mov    %esp,%ebp
c01015f4:	83 ec 08             	sub    $0x8,%esp
c01015f7:	8b 55 08             	mov    0x8(%ebp),%edx
c01015fa:	8b 45 0c             	mov    0xc(%ebp),%eax
c01015fd:	66 89 55 fc          	mov    %dx,-0x4(%ebp)
c0101601:	88 45 f8             	mov    %al,-0x8(%ebp)
c0101604:	0f b6 45 f8          	movzbl -0x8(%ebp),%eax
c0101608:	0f b7 55 fc          	movzwl -0x4(%ebp),%edx
c010160c:	ee                   	out    %al,(%dx)
c010160d:	90                   	nop
c010160e:	c9                   	leave  
c010160f:	c3                   	ret    

c0101610 <_ZL3inbt>:
c0101610:	55                   	push   %ebp
c0101611:	89 e5                	mov    %esp,%ebp
c0101613:	83 ec 14             	sub    $0x14,%esp
c0101616:	8b 45 08             	mov    0x8(%ebp),%eax
c0101619:	66 89 45 ec          	mov    %ax,-0x14(%ebp)
c010161d:	0f b7 45 ec          	movzwl -0x14(%ebp),%eax
c0101621:	89 c2                	mov    %eax,%edx
c0101623:	ec                   	in     (%dx),%al
c0101624:	88 45 ff             	mov    %al,-0x1(%ebp)
c0101627:	0f b6 45 ff          	movzbl -0x1(%ebp),%eax
c010162b:	c9                   	leave  
c010162c:	c3                   	ret    

c010162d <pic_remap>:
c010162d:	55                   	push   %ebp
c010162e:	89 e5                	mov    %esp,%ebp
c0101630:	83 ec 18             	sub    $0x18,%esp
c0101633:	83 ec 04             	sub    $0x4,%esp
c0101636:	ff 75 0c             	push   0xc(%ebp)
c0101639:	ff 75 08             	push   0x8(%ebp)
c010163c:	68 40 30 10 c0       	push   $0xc0103040
c0101641:	e8 1a 0d 00 00       	call   c0102360 <printf>
c0101646:	83 c4 10             	add    $0x10,%esp
c0101649:	83 ec 0c             	sub    $0xc,%esp
c010164c:	6a 21                	push   $0x21
c010164e:	e8 bd ff ff ff       	call   c0101610 <_ZL3inbt>
c0101653:	83 c4 10             	add    $0x10,%esp
c0101656:	88 45 f7             	mov    %al,-0x9(%ebp)
c0101659:	83 ec 0c             	sub    $0xc,%esp
c010165c:	68 a1 00 00 00       	push   $0xa1
c0101661:	e8 aa ff ff ff       	call   c0101610 <_ZL3inbt>
c0101666:	83 c4 10             	add    $0x10,%esp
c0101669:	88 45 f6             	mov    %al,-0xa(%ebp)
c010166c:	83 ec 08             	sub    $0x8,%esp
c010166f:	6a 11                	push   $0x11
c0101671:	6a 20                	push   $0x20
c0101673:	e8 79 ff ff ff       	call   c01015f1 <_ZL4outbth>
c0101678:	83 c4 10             	add    $0x10,%esp
c010167b:	83 ec 08             	sub    $0x8,%esp
c010167e:	6a 11                	push   $0x11
c0101680:	68 a0 00 00 00       	push   $0xa0
c0101685:	e8 67 ff ff ff       	call   c01015f1 <_ZL4outbth>
c010168a:	83 c4 10             	add    $0x10,%esp
c010168d:	8b 45 08             	mov    0x8(%ebp),%eax
c0101690:	0f b6 c0             	movzbl %al,%eax
c0101693:	83 ec 08             	sub    $0x8,%esp
c0101696:	50                   	push   %eax
c0101697:	6a 21                	push   $0x21
c0101699:	e8 53 ff ff ff       	call   c01015f1 <_ZL4outbth>
c010169e:	83 c4 10             	add    $0x10,%esp
c01016a1:	8b 45 0c             	mov    0xc(%ebp),%eax
c01016a4:	0f b6 c0             	movzbl %al,%eax
c01016a7:	83 ec 08             	sub    $0x8,%esp
c01016aa:	50                   	push   %eax
c01016ab:	68 a1 00 00 00       	push   $0xa1
c01016b0:	e8 3c ff ff ff       	call   c01015f1 <_ZL4outbth>
c01016b5:	83 c4 10             	add    $0x10,%esp
c01016b8:	83 ec 08             	sub    $0x8,%esp
c01016bb:	6a 04                	push   $0x4
c01016bd:	6a 21                	push   $0x21
c01016bf:	e8 2d ff ff ff       	call   c01015f1 <_ZL4outbth>
c01016c4:	83 c4 10             	add    $0x10,%esp
c01016c7:	83 ec 08             	sub    $0x8,%esp
c01016ca:	6a 02                	push   $0x2
c01016cc:	68 a1 00 00 00       	push   $0xa1
c01016d1:	e8 1b ff ff ff       	call   c01015f1 <_ZL4outbth>
c01016d6:	83 c4 10             	add    $0x10,%esp
c01016d9:	83 ec 08             	sub    $0x8,%esp
c01016dc:	6a 01                	push   $0x1
c01016de:	6a 21                	push   $0x21
c01016e0:	e8 0c ff ff ff       	call   c01015f1 <_ZL4outbth>
c01016e5:	83 c4 10             	add    $0x10,%esp
c01016e8:	83 ec 08             	sub    $0x8,%esp
c01016eb:	6a 01                	push   $0x1
c01016ed:	68 a1 00 00 00       	push   $0xa1
c01016f2:	e8 fa fe ff ff       	call   c01015f1 <_ZL4outbth>
c01016f7:	83 c4 10             	add    $0x10,%esp
c01016fa:	0f b6 45 f7          	movzbl -0x9(%ebp),%eax
c01016fe:	83 ec 08             	sub    $0x8,%esp
c0101701:	50                   	push   %eax
c0101702:	6a 21                	push   $0x21
c0101704:	e8 e8 fe ff ff       	call   c01015f1 <_ZL4outbth>
c0101709:	83 c4 10             	add    $0x10,%esp
c010170c:	0f b6 45 f6          	movzbl -0xa(%ebp),%eax
c0101710:	83 ec 08             	sub    $0x8,%esp
c0101713:	50                   	push   %eax
c0101714:	68 a1 00 00 00       	push   $0xa1
c0101719:	e8 d3 fe ff ff       	call   c01015f1 <_ZL4outbth>
c010171e:	83 c4 10             	add    $0x10,%esp
c0101721:	83 ec 0c             	sub    $0xc,%esp
c0101724:	6a 21                	push   $0x21
c0101726:	e8 e5 fe ff ff       	call   c0101610 <_ZL3inbt>
c010172b:	83 c4 10             	add    $0x10,%esp
c010172e:	88 45 f5             	mov    %al,-0xb(%ebp)
c0101731:	80 65 f5 fe          	andb   $0xfe,-0xb(%ebp)
c0101735:	0f b6 45 f5          	movzbl -0xb(%ebp),%eax
c0101739:	83 ec 08             	sub    $0x8,%esp
c010173c:	50                   	push   %eax
c010173d:	6a 21                	push   $0x21
c010173f:	e8 ad fe ff ff       	call   c01015f1 <_ZL4outbth>
c0101744:	83 c4 10             	add    $0x10,%esp
c0101747:	83 ec 0c             	sub    $0xc,%esp
c010174a:	68 72 30 10 c0       	push   $0xc0103072
c010174f:	e8 0c 0c 00 00       	call   c0102360 <printf>
c0101754:	83 c4 10             	add    $0x10,%esp
c0101757:	90                   	nop
c0101758:	c9                   	leave  
c0101759:	c3                   	ret    

c010175a <_ZN4APICL4outbEth>:
c010175a:	55                   	push   %ebp
c010175b:	89 e5                	mov    %esp,%ebp
c010175d:	83 ec 08             	sub    $0x8,%esp
c0101760:	8b 55 08             	mov    0x8(%ebp),%edx
c0101763:	8b 45 0c             	mov    0xc(%ebp),%eax
c0101766:	66 89 55 fc          	mov    %dx,-0x4(%ebp)
c010176a:	88 45 f8             	mov    %al,-0x8(%ebp)
c010176d:	0f b6 45 f8          	movzbl -0x8(%ebp),%eax
c0101771:	0f b7 55 fc          	movzwl -0x4(%ebp),%edx
c0101775:	ee                   	out    %al,(%dx)
c0101776:	90                   	nop
c0101777:	c9                   	leave  
c0101778:	c3                   	ret    

c0101779 <_ZN4APIC5cpuidEmPmS0_S0_>:
c0101779:	55                   	push   %ebp
c010177a:	89 e5                	mov    %esp,%ebp
c010177c:	53                   	push   %ebx
c010177d:	8b 45 08             	mov    0x8(%ebp),%eax
c0101780:	0f a2                	cpuid  
c0101782:	8b 45 0c             	mov    0xc(%ebp),%eax
c0101785:	89 18                	mov    %ebx,(%eax)
c0101787:	8b 45 10             	mov    0x10(%ebp),%eax
c010178a:	89 08                	mov    %ecx,(%eax)
c010178c:	8b 45 14             	mov    0x14(%ebp),%eax
c010178f:	89 10                	mov    %edx,(%eax)
c0101791:	90                   	nop
c0101792:	8b 5d fc             	mov    -0x4(%ebp),%ebx
c0101795:	c9                   	leave  
c0101796:	c3                   	ret    

c0101797 <_ZN4APIC18check_apic_supportEv>:
c0101797:	55                   	push   %ebp
c0101798:	89 e5                	mov    %esp,%ebp
c010179a:	83 ec 10             	sub    $0x10,%esp
c010179d:	8d 45 f4             	lea    -0xc(%ebp),%eax
c01017a0:	50                   	push   %eax
c01017a1:	8d 45 f8             	lea    -0x8(%ebp),%eax
c01017a4:	50                   	push   %eax
c01017a5:	8d 45 fc             	lea    -0x4(%ebp),%eax
c01017a8:	50                   	push   %eax
c01017a9:	6a 01                	push   $0x1
c01017ab:	e8 c9 ff ff ff       	call   c0101779 <_ZN4APIC5cpuidEmPmS0_S0_>
c01017b0:	83 c4 10             	add    $0x10,%esp
c01017b3:	8b 45 f4             	mov    -0xc(%ebp),%eax
c01017b6:	25 00 02 00 00       	and    $0x200,%eax
c01017bb:	85 c0                	test   %eax,%eax
c01017bd:	0f 95 c0             	setne  %al
c01017c0:	c9                   	leave  
c01017c1:	c3                   	ret    

c01017c2 <_ZN4APIC11enable_apicEv>:
c01017c2:	55                   	push   %ebp
c01017c3:	89 e5                	mov    %esp,%ebp
c01017c5:	83 ec 18             	sub    $0x18,%esp
c01017c8:	83 ec 04             	sub    $0x4,%esp
c01017cb:	8d 45 ec             	lea    -0x14(%ebp),%eax
c01017ce:	50                   	push   %eax
c01017cf:	8d 45 f0             	lea    -0x10(%ebp),%eax
c01017d2:	50                   	push   %eax
c01017d3:	6a 1b                	push   $0x1b
c01017d5:	e8 0c 12 00 00       	call   c01029e6 <_ZN4APIC8read_msrEmPmS0_>
c01017da:	83 c4 10             	add    $0x10,%esp
c01017dd:	8b 45 f0             	mov    -0x10(%ebp),%eax
c01017e0:	80 cc 08             	or     $0x8,%ah
c01017e3:	89 45 f0             	mov    %eax,-0x10(%ebp)
c01017e6:	8b 55 ec             	mov    -0x14(%ebp),%edx
c01017e9:	8b 45 f0             	mov    -0x10(%ebp),%eax
c01017ec:	83 ec 04             	sub    $0x4,%esp
c01017ef:	52                   	push   %edx
c01017f0:	50                   	push   %eax
c01017f1:	6a 1b                	push   $0x1b
c01017f3:	e8 dd 11 00 00       	call   c01029d5 <_ZN4APIC9write_msrEmmm>
c01017f8:	83 c4 10             	add    $0x10,%esp
c01017fb:	a1 04 40 10 c0       	mov    0xc0104004,%eax
c0101800:	05 f0 00 00 00       	add    $0xf0,%eax
c0101805:	8b 00                	mov    (%eax),%eax
c0101807:	89 45 f4             	mov    %eax,-0xc(%ebp)
c010180a:	81 4d f4 00 01 00 00 	orl    $0x100,-0xc(%ebp)
c0101811:	81 4d f4 ff 00 00 00 	orl    $0xff,-0xc(%ebp)
c0101818:	a1 04 40 10 c0       	mov    0xc0104004,%eax
c010181d:	8d 90 f0 00 00 00    	lea    0xf0(%eax),%edx
c0101823:	8b 45 f4             	mov    -0xc(%ebp),%eax
c0101826:	89 02                	mov    %eax,(%edx)
c0101828:	90                   	nop
c0101829:	c9                   	leave  
c010182a:	c3                   	ret    

c010182b <_ZN4APIC9apic_readEm>:
c010182b:	55                   	push   %ebp
c010182c:	89 e5                	mov    %esp,%ebp
c010182e:	8b 45 08             	mov    0x8(%ebp),%eax
c0101831:	2d 00 50 c0 3f       	sub    $0x3fc05000,%eax
c0101836:	8b 00                	mov    (%eax),%eax
c0101838:	5d                   	pop    %ebp
c0101839:	c3                   	ret    

c010183a <_ZN4APIC10apic_writeEmm>:
c010183a:	55                   	push   %ebp
c010183b:	89 e5                	mov    %esp,%ebp
c010183d:	8b 45 08             	mov    0x8(%ebp),%eax
c0101840:	2d 00 50 c0 3f       	sub    $0x3fc05000,%eax
c0101845:	89 c2                	mov    %eax,%edx
c0101847:	8b 45 0c             	mov    0xc(%ebp),%eax
c010184a:	89 02                	mov    %eax,(%edx)
c010184c:	90                   	nop
c010184d:	5d                   	pop    %ebp
c010184e:	c3                   	ret    

c010184f <_ZN4APIC11disable_picEv>:
c010184f:	55                   	push   %ebp
c0101850:	89 e5                	mov    %esp,%ebp
c0101852:	68 ff 00 00 00       	push   $0xff
c0101857:	6a 21                	push   $0x21
c0101859:	e8 fc fe ff ff       	call   c010175a <_ZN4APICL4outbEth>
c010185e:	83 c4 08             	add    $0x8,%esp
c0101861:	68 ff 00 00 00       	push   $0xff
c0101866:	68 a1 00 00 00       	push   $0xa1
c010186b:	e8 ea fe ff ff       	call   c010175a <_ZN4APICL4outbEth>
c0101870:	83 c4 08             	add    $0x8,%esp
c0101873:	90                   	nop
c0101874:	c9                   	leave  
c0101875:	c3                   	ret    

c0101876 <_ZN4APIC8send_eoiEv>:
c0101876:	55                   	push   %ebp
c0101877:	89 e5                	mov    %esp,%ebp
c0101879:	6a 00                	push   $0x0
c010187b:	68 b0 00 00 00       	push   $0xb0
c0101880:	e8 b5 ff ff ff       	call   c010183a <_ZN4APIC10apic_writeEmm>
c0101885:	83 c4 08             	add    $0x8,%esp
c0101888:	90                   	nop
c0101889:	c9                   	leave  
c010188a:	c3                   	ret    

c010188b <_ZN4APIC16setup_apic_timerEmm>:
c010188b:	55                   	push   %ebp
c010188c:	89 e5                	mov    %esp,%ebp
c010188e:	ff 75 0c             	push   0xc(%ebp)
c0101891:	68 e0 03 00 00       	push   $0x3e0
c0101896:	e8 9f ff ff ff       	call   c010183a <_ZN4APIC10apic_writeEmm>
c010189b:	83 c4 08             	add    $0x8,%esp
c010189e:	ff 75 08             	push   0x8(%ebp)
c01018a1:	68 80 03 00 00       	push   $0x380
c01018a6:	e8 8f ff ff ff       	call   c010183a <_ZN4APIC10apic_writeEmm>
c01018ab:	83 c4 08             	add    $0x8,%esp
c01018ae:	68 20 00 02 00       	push   $0x20020
c01018b3:	68 20 03 00 00       	push   $0x320
c01018b8:	e8 7d ff ff ff       	call   c010183a <_ZN4APIC10apic_writeEmm>
c01018bd:	83 c4 08             	add    $0x8,%esp
c01018c0:	90                   	nop
c01018c1:	c9                   	leave  
c01018c2:	c3                   	ret    

c01018c3 <_ZN4APIC8send_ipiEmh>:
c01018c3:	55                   	push   %ebp
c01018c4:	89 e5                	mov    %esp,%ebp
c01018c6:	83 ec 04             	sub    $0x4,%esp
c01018c9:	8b 45 0c             	mov    0xc(%ebp),%eax
c01018cc:	88 45 fc             	mov    %al,-0x4(%ebp)
c01018cf:	8b 45 08             	mov    0x8(%ebp),%eax
c01018d2:	c1 e0 18             	shl    $0x18,%eax
c01018d5:	50                   	push   %eax
c01018d6:	68 10 03 00 00       	push   $0x310
c01018db:	e8 5a ff ff ff       	call   c010183a <_ZN4APIC10apic_writeEmm>
c01018e0:	83 c4 08             	add    $0x8,%esp
c01018e3:	0f b6 45 fc          	movzbl -0x4(%ebp),%eax
c01018e7:	50                   	push   %eax
c01018e8:	68 00 03 00 00       	push   $0x300
c01018ed:	e8 48 ff ff ff       	call   c010183a <_ZN4APIC10apic_writeEmm>
c01018f2:	83 c4 08             	add    $0x8,%esp
c01018f5:	90                   	nop
c01018f6:	c9                   	leave  
c01018f7:	c3                   	ret    

c01018f8 <get_mmap>:
c01018f8:	55                   	push   %ebp
c01018f9:	89 e5                	mov    %esp,%ebp
c01018fb:	83 ec 10             	sub    $0x10,%esp
c01018fe:	c7 45 f8 00 00 00 00 	movl   $0x0,-0x8(%ebp)
c0101905:	c7 45 fc 00 00 00 00 	movl   $0x0,-0x4(%ebp)
c010190c:	8b 45 0c             	mov    0xc(%ebp),%eax
c010190f:	8b 00                	mov    (%eax),%eax
c0101911:	83 e0 40             	and    $0x40,%eax
c0101914:	85 c0                	test   %eax,%eax
c0101916:	74 4b                	je     c0101963 <get_mmap+0x6b>
c0101918:	8b 45 0c             	mov    0xc(%ebp),%eax
c010191b:	8b 40 30             	mov    0x30(%eax),%eax
c010191e:	89 45 f4             	mov    %eax,-0xc(%ebp)
c0101921:	8b 45 0c             	mov    0xc(%ebp),%eax
c0101924:	8b 50 30             	mov    0x30(%eax),%edx
c0101927:	8b 45 0c             	mov    0xc(%ebp),%eax
c010192a:	8b 40 2c             	mov    0x2c(%eax),%eax
c010192d:	01 d0                	add    %edx,%eax
c010192f:	89 45 f0             	mov    %eax,-0x10(%ebp)
c0101932:	eb 27                	jmp    c010195b <get_mmap+0x63>
c0101934:	8b 45 f4             	mov    -0xc(%ebp),%eax
c0101937:	3b 45 f0             	cmp    -0x10(%ebp),%eax
c010193a:	73 0f                	jae    c010194b <get_mmap+0x53>
c010193c:	8b 45 f4             	mov    -0xc(%ebp),%eax
c010193f:	8b 50 10             	mov    0x10(%eax),%edx
c0101942:	8b 40 0c             	mov    0xc(%eax),%eax
c0101945:	01 45 f8             	add    %eax,-0x8(%ebp)
c0101948:	11 55 fc             	adc    %edx,-0x4(%ebp)
c010194b:	8b 45 f4             	mov    -0xc(%ebp),%eax
c010194e:	8b 10                	mov    (%eax),%edx
c0101950:	8b 45 f4             	mov    -0xc(%ebp),%eax
c0101953:	01 d0                	add    %edx,%eax
c0101955:	83 c0 04             	add    $0x4,%eax
c0101958:	89 45 f4             	mov    %eax,-0xc(%ebp)
c010195b:	8b 45 f4             	mov    -0xc(%ebp),%eax
c010195e:	3b 45 f0             	cmp    -0x10(%ebp),%eax
c0101961:	72 d1                	jb     c0101934 <get_mmap+0x3c>
c0101963:	8b 45 f8             	mov    -0x8(%ebp),%eax
c0101966:	8b 55 fc             	mov    -0x4(%ebp),%edx
c0101969:	c9                   	leave  
c010196a:	c3                   	ret    

c010196b <_Z8pmm_initP14multiboot_info>:
c010196b:	55                   	push   %ebp
c010196c:	89 e5                	mov    %esp,%ebp
c010196e:	83 ec 58             	sub    $0x58,%esp
c0101971:	8b 45 08             	mov    0x8(%ebp),%eax
c0101974:	8b 00                	mov    (%eax),%eax
c0101976:	83 e0 40             	and    $0x40,%eax
c0101979:	85 c0                	test   %eax,%eax
c010197b:	0f 84 2b 02 00 00    	je     c0101bac <_Z8pmm_initP14multiboot_info+0x241>
c0101981:	8b 45 08             	mov    0x8(%ebp),%eax
c0101984:	8b 40 30             	mov    0x30(%eax),%eax
c0101987:	89 45 f4             	mov    %eax,-0xc(%ebp)
c010198a:	8b 45 08             	mov    0x8(%ebp),%eax
c010198d:	8b 50 30             	mov    0x30(%eax),%edx
c0101990:	8b 45 08             	mov    0x8(%ebp),%eax
c0101993:	8b 40 2c             	mov    0x2c(%eax),%eax
c0101996:	01 d0                	add    %edx,%eax
c0101998:	89 45 d4             	mov    %eax,-0x2c(%ebp)
c010199b:	c7 45 e8 00 00 00 00 	movl   $0x0,-0x18(%ebp)
c01019a2:	c7 45 ec 00 00 00 00 	movl   $0x0,-0x14(%ebp)
c01019a9:	c7 45 e4 00 00 00 00 	movl   $0x0,-0x1c(%ebp)
c01019b0:	b8 70 01 10 c0       	mov    $0xc0100170,%eax
c01019b5:	05 00 00 00 40       	add    $0x40000000,%eax
c01019ba:	89 45 d0             	mov    %eax,-0x30(%ebp)
c01019bd:	b8 49 49 11 c0       	mov    $0xc0114949,%eax
c01019c2:	05 00 00 00 40       	add    $0x40000000,%eax
c01019c7:	89 45 cc             	mov    %eax,-0x34(%ebp)
c01019ca:	c7 45 c8 d9 47 01 00 	movl   $0x147d9,-0x38(%ebp)
c01019d1:	8b 45 cc             	mov    -0x34(%ebp),%eax
c01019d4:	05 ff 0f 00 00       	add    $0xfff,%eax
c01019d9:	25 00 f0 ff ff       	and    $0xfffff000,%eax
c01019de:	89 45 c4             	mov    %eax,-0x3c(%ebp)
c01019e1:	83 ec 08             	sub    $0x8,%esp
c01019e4:	68 70 01 10 c0       	push   $0xc0100170
c01019e9:	68 90 30 10 c0       	push   $0xc0103090
c01019ee:	e8 6d 09 00 00       	call   c0102360 <printf>
c01019f3:	83 c4 10             	add    $0x10,%esp
c01019f6:	83 ec 08             	sub    $0x8,%esp
c01019f9:	68 49 49 11 c0       	push   $0xc0114949
c01019fe:	68 a3 30 10 c0       	push   $0xc01030a3
c0101a03:	e8 58 09 00 00       	call   c0102360 <printf>
c0101a08:	83 c4 10             	add    $0x10,%esp
c0101a0b:	83 ec 08             	sub    $0x8,%esp
c0101a0e:	68 d9 47 01 00       	push   $0x147d9
c0101a13:	68 b4 30 10 c0       	push   $0xc01030b4
c0101a18:	e8 43 09 00 00       	call   c0102360 <printf>
c0101a1d:	83 c4 10             	add    $0x10,%esp
c0101a20:	83 ec 08             	sub    $0x8,%esp
c0101a23:	ff 75 c4             	push   -0x3c(%ebp)
c0101a26:	68 c6 30 10 c0       	push   $0xc01030c6
c0101a2b:	e8 30 09 00 00       	call   c0102360 <printf>
c0101a30:	83 c4 10             	add    $0x10,%esp
c0101a33:	eb 3c                	jmp    c0101a71 <_Z8pmm_initP14multiboot_info+0x106>
c0101a35:	8b 45 f4             	mov    -0xc(%ebp),%eax
c0101a38:	8b 40 14             	mov    0x14(%eax),%eax
c0101a3b:	83 f8 01             	cmp    $0x1,%eax
c0101a3e:	75 21                	jne    c0101a61 <_Z8pmm_initP14multiboot_info+0xf6>
c0101a40:	83 7d e4 00          	cmpl   $0x0,-0x1c(%ebp)
c0101a44:	75 0c                	jne    c0101a52 <_Z8pmm_initP14multiboot_info+0xe7>
c0101a46:	8b 45 f4             	mov    -0xc(%ebp),%eax
c0101a49:	8b 50 08             	mov    0x8(%eax),%edx
c0101a4c:	8b 40 04             	mov    0x4(%eax),%eax
c0101a4f:	89 45 e4             	mov    %eax,-0x1c(%ebp)
c0101a52:	8b 45 f4             	mov    -0xc(%ebp),%eax
c0101a55:	8b 50 10             	mov    0x10(%eax),%edx
c0101a58:	8b 40 0c             	mov    0xc(%eax),%eax
c0101a5b:	01 45 e8             	add    %eax,-0x18(%ebp)
c0101a5e:	11 55 ec             	adc    %edx,-0x14(%ebp)
c0101a61:	8b 45 f4             	mov    -0xc(%ebp),%eax
c0101a64:	8b 10                	mov    (%eax),%edx
c0101a66:	8b 45 f4             	mov    -0xc(%ebp),%eax
c0101a69:	01 d0                	add    %edx,%eax
c0101a6b:	83 c0 04             	add    $0x4,%eax
c0101a6e:	89 45 f4             	mov    %eax,-0xc(%ebp)
c0101a71:	8b 45 f4             	mov    -0xc(%ebp),%eax
c0101a74:	3b 45 d4             	cmp    -0x2c(%ebp),%eax
c0101a77:	72 bc                	jb     c0101a35 <_Z8pmm_initP14multiboot_info+0xca>
c0101a79:	8b 45 c4             	mov    -0x3c(%ebp),%eax
c0101a7c:	05 00 10 00 00       	add    $0x1000,%eax
c0101a81:	a3 20 88 10 c0       	mov    %eax,0xc0108820
c0101a86:	8b 15 20 88 10 c0    	mov    0xc0108820,%edx
c0101a8c:	8b 45 e8             	mov    -0x18(%ebp),%eax
c0101a8f:	01 d0                	add    %edx,%eax
c0101a91:	a3 24 88 10 c0       	mov    %eax,0xc0108824
c0101a96:	8b 45 e8             	mov    -0x18(%ebp),%eax
c0101a99:	8b 55 ec             	mov    -0x14(%ebp),%edx
c0101a9c:	0f ac d0 0c          	shrd   $0xc,%edx,%eax
c0101aa0:	c1 ea 0c             	shr    $0xc,%edx
c0101aa3:	a3 1c 88 10 c0       	mov    %eax,0xc010881c
c0101aa8:	a1 1c 88 10 c0       	mov    0xc010881c,%eax
c0101aad:	83 c0 07             	add    $0x7,%eax
c0101ab0:	c1 e8 03             	shr    $0x3,%eax
c0101ab3:	89 45 c0             	mov    %eax,-0x40(%ebp)
c0101ab6:	a1 20 88 10 c0       	mov    0xc0108820,%eax
c0101abb:	a3 18 88 10 c0       	mov    %eax,0xc0108818
c0101ac0:	8b 15 20 88 10 c0    	mov    0xc0108820,%edx
c0101ac6:	8b 45 c0             	mov    -0x40(%ebp),%eax
c0101ac9:	01 d0                	add    %edx,%eax
c0101acb:	a3 20 88 10 c0       	mov    %eax,0xc0108820
c0101ad0:	a1 18 88 10 c0       	mov    0xc0108818,%eax
c0101ad5:	83 ec 04             	sub    $0x4,%esp
c0101ad8:	ff 75 c0             	push   -0x40(%ebp)
c0101adb:	6a 00                	push   $0x0
c0101add:	50                   	push   %eax
c0101ade:	e8 0c 0c 00 00       	call   c01026ef <memset>
c0101ae3:	83 c4 10             	add    $0x10,%esp
c0101ae6:	c7 45 e0 00 00 00 00 	movl   $0x0,-0x20(%ebp)
c0101aed:	eb 1e                	jmp    c0101b0d <_Z8pmm_initP14multiboot_info+0x1a2>
c0101aef:	8b 45 e0             	mov    -0x20(%ebp),%eax
c0101af2:	c1 e8 0c             	shr    $0xc,%eax
c0101af5:	83 ec 08             	sub    $0x8,%esp
c0101af8:	50                   	push   %eax
c0101af9:	68 18 88 10 c0       	push   $0xc0108818
c0101afe:	e8 ac 00 00 00       	call   c0101baf <_Z13set_page_usedP8bitmap_tm>
c0101b03:	83 c4 10             	add    $0x10,%esp
c0101b06:	81 45 e0 00 10 00 00 	addl   $0x1000,-0x20(%ebp)
c0101b0d:	81 7d e0 ff ff 0f 00 	cmpl   $0xfffff,-0x20(%ebp)
c0101b14:	76 d9                	jbe    c0101aef <_Z8pmm_initP14multiboot_info+0x184>
c0101b16:	c7 45 dc 00 00 10 00 	movl   $0x100000,-0x24(%ebp)
c0101b1d:	eb 1e                	jmp    c0101b3d <_Z8pmm_initP14multiboot_info+0x1d2>
c0101b1f:	8b 45 dc             	mov    -0x24(%ebp),%eax
c0101b22:	c1 e8 0c             	shr    $0xc,%eax
c0101b25:	83 ec 08             	sub    $0x8,%esp
c0101b28:	50                   	push   %eax
c0101b29:	68 18 88 10 c0       	push   $0xc0108818
c0101b2e:	e8 7c 00 00 00       	call   c0101baf <_Z13set_page_usedP8bitmap_tm>
c0101b33:	83 c4 10             	add    $0x10,%esp
c0101b36:	81 45 dc 00 10 00 00 	addl   $0x1000,-0x24(%ebp)
c0101b3d:	8b 45 cc             	mov    -0x34(%ebp),%eax
c0101b40:	05 00 00 00 40       	add    $0x40000000,%eax
c0101b45:	39 45 dc             	cmp    %eax,-0x24(%ebp)
c0101b48:	72 d5                	jb     c0101b1f <_Z8pmm_initP14multiboot_info+0x1b4>
c0101b4a:	c7 45 b0 00 00 fe 1f 	movl   $0x1ffe0000,-0x50(%ebp)
c0101b51:	c7 45 b4 00 10 fe 1f 	movl   $0x1ffe1000,-0x4c(%ebp)
c0101b58:	c7 45 b8 00 00 c0 fe 	movl   $0xfec00000,-0x48(%ebp)
c0101b5f:	c7 45 bc 00 00 e0 fe 	movl   $0xfee00000,-0x44(%ebp)
c0101b66:	c7 45 d8 00 00 00 00 	movl   $0x0,-0x28(%ebp)
c0101b6d:	eb 1f                	jmp    c0101b8e <_Z8pmm_initP14multiboot_info+0x223>
c0101b6f:	8b 45 d8             	mov    -0x28(%ebp),%eax
c0101b72:	8b 44 85 b0          	mov    -0x50(%ebp,%eax,4),%eax
c0101b76:	c1 e8 0c             	shr    $0xc,%eax
c0101b79:	83 ec 08             	sub    $0x8,%esp
c0101b7c:	50                   	push   %eax
c0101b7d:	68 18 88 10 c0       	push   $0xc0108818
c0101b82:	e8 28 00 00 00       	call   c0101baf <_Z13set_page_usedP8bitmap_tm>
c0101b87:	83 c4 10             	add    $0x10,%esp
c0101b8a:	83 45 d8 01          	addl   $0x1,-0x28(%ebp)
c0101b8e:	83 7d d8 03          	cmpl   $0x3,-0x28(%ebp)
c0101b92:	76 db                	jbe    c0101b6f <_Z8pmm_initP14multiboot_info+0x204>
c0101b94:	a1 1c 88 10 c0       	mov    0xc010881c,%eax
c0101b99:	83 ec 08             	sub    $0x8,%esp
c0101b9c:	50                   	push   %eax
c0101b9d:	68 e0 30 10 c0       	push   $0xc01030e0
c0101ba2:	e8 b9 07 00 00       	call   c0102360 <printf>
c0101ba7:	83 c4 10             	add    $0x10,%esp
c0101baa:	eb 01                	jmp    c0101bad <_Z8pmm_initP14multiboot_info+0x242>
c0101bac:	90                   	nop
c0101bad:	c9                   	leave  
c0101bae:	c3                   	ret    

c0101baf <_Z13set_page_usedP8bitmap_tm>:
c0101baf:	55                   	push   %ebp
c0101bb0:	89 e5                	mov    %esp,%ebp
c0101bb2:	53                   	push   %ebx
c0101bb3:	83 ec 10             	sub    $0x10,%esp
c0101bb6:	8b 45 0c             	mov    0xc(%ebp),%eax
c0101bb9:	c1 e8 03             	shr    $0x3,%eax
c0101bbc:	89 45 f8             	mov    %eax,-0x8(%ebp)
c0101bbf:	8b 45 0c             	mov    0xc(%ebp),%eax
c0101bc2:	83 e0 07             	and    $0x7,%eax
c0101bc5:	88 45 f7             	mov    %al,-0x9(%ebp)
c0101bc8:	8b 45 08             	mov    0x8(%ebp),%eax
c0101bcb:	8b 10                	mov    (%eax),%edx
c0101bcd:	8b 45 f8             	mov    -0x8(%ebp),%eax
c0101bd0:	01 d0                	add    %edx,%eax
c0101bd2:	0f b6 00             	movzbl (%eax),%eax
c0101bd5:	89 c3                	mov    %eax,%ebx
c0101bd7:	0f b6 45 f7          	movzbl -0x9(%ebp),%eax
c0101bdb:	ba 01 00 00 00       	mov    $0x1,%edx
c0101be0:	89 c1                	mov    %eax,%ecx
c0101be2:	d3 e2                	shl    %cl,%edx
c0101be4:	89 d0                	mov    %edx,%eax
c0101be6:	09 c3                	or     %eax,%ebx
c0101be8:	89 d9                	mov    %ebx,%ecx
c0101bea:	8b 45 08             	mov    0x8(%ebp),%eax
c0101bed:	8b 10                	mov    (%eax),%edx
c0101bef:	8b 45 f8             	mov    -0x8(%ebp),%eax
c0101bf2:	01 d0                	add    %edx,%eax
c0101bf4:	89 ca                	mov    %ecx,%edx
c0101bf6:	88 10                	mov    %dl,(%eax)
c0101bf8:	90                   	nop
c0101bf9:	8b 5d fc             	mov    -0x4(%ebp),%ebx
c0101bfc:	c9                   	leave  
c0101bfd:	c3                   	ret    

c0101bfe <_Z13set_page_freeP8bitmap_tm>:
c0101bfe:	55                   	push   %ebp
c0101bff:	89 e5                	mov    %esp,%ebp
c0101c01:	53                   	push   %ebx
c0101c02:	83 ec 10             	sub    $0x10,%esp
c0101c05:	8b 45 0c             	mov    0xc(%ebp),%eax
c0101c08:	c1 e8 03             	shr    $0x3,%eax
c0101c0b:	89 45 f8             	mov    %eax,-0x8(%ebp)
c0101c0e:	8b 45 0c             	mov    0xc(%ebp),%eax
c0101c11:	83 e0 07             	and    $0x7,%eax
c0101c14:	88 45 f7             	mov    %al,-0x9(%ebp)
c0101c17:	8b 45 08             	mov    0x8(%ebp),%eax
c0101c1a:	8b 10                	mov    (%eax),%edx
c0101c1c:	8b 45 f8             	mov    -0x8(%ebp),%eax
c0101c1f:	01 d0                	add    %edx,%eax
c0101c21:	0f b6 00             	movzbl (%eax),%eax
c0101c24:	89 c3                	mov    %eax,%ebx
c0101c26:	0f b6 45 f7          	movzbl -0x9(%ebp),%eax
c0101c2a:	ba 01 00 00 00       	mov    $0x1,%edx
c0101c2f:	89 c1                	mov    %eax,%ecx
c0101c31:	d3 e2                	shl    %cl,%edx
c0101c33:	89 d0                	mov    %edx,%eax
c0101c35:	f7 d0                	not    %eax
c0101c37:	21 c3                	and    %eax,%ebx
c0101c39:	89 d9                	mov    %ebx,%ecx
c0101c3b:	8b 45 08             	mov    0x8(%ebp),%eax
c0101c3e:	8b 10                	mov    (%eax),%edx
c0101c40:	8b 45 f8             	mov    -0x8(%ebp),%eax
c0101c43:	01 d0                	add    %edx,%eax
c0101c45:	89 ca                	mov    %ecx,%edx
c0101c47:	88 10                	mov    %dl,(%eax)
c0101c49:	90                   	nop
c0101c4a:	8b 5d fc             	mov    -0x4(%ebp),%ebx
c0101c4d:	c9                   	leave  
c0101c4e:	c3                   	ret    

c0101c4f <_Z14find_free_pageP8bitmap_t>:
c0101c4f:	55                   	push   %ebp
c0101c50:	89 e5                	mov    %esp,%ebp
c0101c52:	83 ec 10             	sub    $0x10,%esp
c0101c55:	c7 45 fc 00 00 00 00 	movl   $0x0,-0x4(%ebp)
c0101c5c:	eb 3c                	jmp    c0101c9a <_Z14find_free_pageP8bitmap_t+0x4b>
c0101c5e:	8b 45 fc             	mov    -0x4(%ebp),%eax
c0101c61:	c1 e8 03             	shr    $0x3,%eax
c0101c64:	89 45 f8             	mov    %eax,-0x8(%ebp)
c0101c67:	8b 45 fc             	mov    -0x4(%ebp),%eax
c0101c6a:	83 e0 07             	and    $0x7,%eax
c0101c6d:	88 45 f7             	mov    %al,-0x9(%ebp)
c0101c70:	8b 45 08             	mov    0x8(%ebp),%eax
c0101c73:	8b 10                	mov    (%eax),%edx
c0101c75:	8b 45 f8             	mov    -0x8(%ebp),%eax
c0101c78:	01 d0                	add    %edx,%eax
c0101c7a:	0f b6 00             	movzbl (%eax),%eax
c0101c7d:	0f b6 d0             	movzbl %al,%edx
c0101c80:	0f b6 45 f7          	movzbl -0x9(%ebp),%eax
c0101c84:	89 c1                	mov    %eax,%ecx
c0101c86:	d3 fa                	sar    %cl,%edx
c0101c88:	89 d0                	mov    %edx,%eax
c0101c8a:	83 e0 01             	and    $0x1,%eax
c0101c8d:	85 c0                	test   %eax,%eax
c0101c8f:	75 05                	jne    c0101c96 <_Z14find_free_pageP8bitmap_t+0x47>
c0101c91:	8b 45 fc             	mov    -0x4(%ebp),%eax
c0101c94:	eb 14                	jmp    c0101caa <_Z14find_free_pageP8bitmap_t+0x5b>
c0101c96:	83 45 fc 01          	addl   $0x1,-0x4(%ebp)
c0101c9a:	8b 45 08             	mov    0x8(%ebp),%eax
c0101c9d:	8b 40 04             	mov    0x4(%eax),%eax
c0101ca0:	39 45 fc             	cmp    %eax,-0x4(%ebp)
c0101ca3:	72 b9                	jb     c0101c5e <_Z14find_free_pageP8bitmap_t+0xf>
c0101ca5:	b8 ff ff ff ff       	mov    $0xffffffff,%eax
c0101caa:	c9                   	leave  
c0101cab:	c3                   	ret    

c0101cac <_Z14pmm_alloc_pagev>:
c0101cac:	55                   	push   %ebp
c0101cad:	89 e5                	mov    %esp,%ebp
c0101caf:	83 ec 10             	sub    $0x10,%esp
c0101cb2:	68 18 88 10 c0       	push   $0xc0108818
c0101cb7:	e8 93 ff ff ff       	call   c0101c4f <_Z14find_free_pageP8bitmap_t>
c0101cbc:	83 c4 04             	add    $0x4,%esp
c0101cbf:	89 45 fc             	mov    %eax,-0x4(%ebp)
c0101cc2:	83 7d fc ff          	cmpl   $0xffffffff,-0x4(%ebp)
c0101cc6:	75 07                	jne    c0101ccf <_Z14pmm_alloc_pagev+0x23>
c0101cc8:	b8 00 00 00 00       	mov    $0x0,%eax
c0101ccd:	eb 24                	jmp    c0101cf3 <_Z14pmm_alloc_pagev+0x47>
c0101ccf:	8b 45 fc             	mov    -0x4(%ebp),%eax
c0101cd2:	50                   	push   %eax
c0101cd3:	68 18 88 10 c0       	push   $0xc0108818
c0101cd8:	e8 d2 fe ff ff       	call   c0101baf <_Z13set_page_usedP8bitmap_tm>
c0101cdd:	83 c4 08             	add    $0x8,%esp
c0101ce0:	a1 20 88 10 c0       	mov    0xc0108820,%eax
c0101ce5:	8b 55 fc             	mov    -0x4(%ebp),%edx
c0101ce8:	c1 e2 0c             	shl    $0xc,%edx
c0101ceb:	01 d0                	add    %edx,%eax
c0101ced:	89 45 f8             	mov    %eax,-0x8(%ebp)
c0101cf0:	8b 45 f8             	mov    -0x8(%ebp),%eax
c0101cf3:	c9                   	leave  
c0101cf4:	c3                   	ret    

c0101cf5 <_Z13pmm_free_pagePv>:
c0101cf5:	55                   	push   %ebp
c0101cf6:	89 e5                	mov    %esp,%ebp
c0101cf8:	83 ec 10             	sub    $0x10,%esp
c0101cfb:	8b 45 08             	mov    0x8(%ebp),%eax
c0101cfe:	89 45 fc             	mov    %eax,-0x4(%ebp)
c0101d01:	a1 20 88 10 c0       	mov    0xc0108820,%eax
c0101d06:	39 45 fc             	cmp    %eax,-0x4(%ebp)
c0101d09:	72 2e                	jb     c0101d39 <_Z13pmm_free_pagePv+0x44>
c0101d0b:	a1 24 88 10 c0       	mov    0xc0108824,%eax
c0101d10:	39 45 fc             	cmp    %eax,-0x4(%ebp)
c0101d13:	73 24                	jae    c0101d39 <_Z13pmm_free_pagePv+0x44>
c0101d15:	a1 20 88 10 c0       	mov    0xc0108820,%eax
c0101d1a:	8b 55 fc             	mov    -0x4(%ebp),%edx
c0101d1d:	29 c2                	sub    %eax,%edx
c0101d1f:	89 d0                	mov    %edx,%eax
c0101d21:	c1 e8 0c             	shr    $0xc,%eax
c0101d24:	89 45 f8             	mov    %eax,-0x8(%ebp)
c0101d27:	ff 75 f8             	push   -0x8(%ebp)
c0101d2a:	68 18 88 10 c0       	push   $0xc0108818
c0101d2f:	e8 ca fe ff ff       	call   c0101bfe <_Z13set_page_freeP8bitmap_tm>
c0101d34:	83 c4 08             	add    $0x8,%esp
c0101d37:	eb 01                	jmp    c0101d3a <_Z13pmm_free_pagePv+0x45>
c0101d39:	90                   	nop
c0101d3a:	c9                   	leave  
c0101d3b:	c3                   	ret    

c0101d3c <_Z8vma_initv>:
c0101d3c:	55                   	push   %ebp
c0101d3d:	89 e5                	mov    %esp,%ebp
c0101d3f:	83 ec 18             	sub    $0x18,%esp
c0101d42:	c7 45 f4 49 49 11 c0 	movl   $0xc0114949,-0xc(%ebp)
c0101d49:	8b 45 f4             	mov    -0xc(%ebp),%eax
c0101d4c:	05 ff 0f 00 00       	add    $0xfff,%eax
c0101d51:	25 00 f0 ff ff       	and    $0xfffff000,%eax
c0101d56:	89 45 f0             	mov    %eax,-0x10(%ebp)
c0101d59:	8b 45 f0             	mov    -0x10(%ebp),%eax
c0101d5c:	a3 30 88 10 c0       	mov    %eax,0xc0108830
c0101d61:	c7 05 34 88 10 c0 00 	movl   $0xc0000000,0xc0108834
c0101d68:	00 00 c0 
c0101d6b:	8b 15 34 88 10 c0    	mov    0xc0108834,%edx
c0101d71:	a1 30 88 10 c0       	mov    0xc0108830,%eax
c0101d76:	29 c2                	sub    %eax,%edx
c0101d78:	89 d0                	mov    %edx,%eax
c0101d7a:	c1 e8 0c             	shr    $0xc,%eax
c0101d7d:	a3 2c 88 10 c0       	mov    %eax,0xc010882c
c0101d82:	a1 20 88 10 c0       	mov    0xc0108820,%eax
c0101d87:	a3 28 88 10 c0       	mov    %eax,0xc0108828
c0101d8c:	a1 20 88 10 c0       	mov    0xc0108820,%eax
c0101d91:	8b 15 2c 88 10 c0    	mov    0xc010882c,%edx
c0101d97:	83 c2 07             	add    $0x7,%edx
c0101d9a:	c1 ea 03             	shr    $0x3,%edx
c0101d9d:	01 d0                	add    %edx,%eax
c0101d9f:	a3 20 88 10 c0       	mov    %eax,0xc0108820
c0101da4:	a1 2c 88 10 c0       	mov    0xc010882c,%eax
c0101da9:	83 c0 07             	add    $0x7,%eax
c0101dac:	c1 e8 03             	shr    $0x3,%eax
c0101daf:	89 c2                	mov    %eax,%edx
c0101db1:	a1 28 88 10 c0       	mov    0xc0108828,%eax
c0101db6:	83 ec 04             	sub    $0x4,%esp
c0101db9:	52                   	push   %edx
c0101dba:	6a 00                	push   $0x0
c0101dbc:	50                   	push   %eax
c0101dbd:	e8 2d 09 00 00       	call   c01026ef <memset>
c0101dc2:	83 c4 10             	add    $0x10,%esp
c0101dc5:	a1 2c 88 10 c0       	mov    0xc010882c,%eax
c0101dca:	83 ec 08             	sub    $0x8,%esp
c0101dcd:	50                   	push   %eax
c0101dce:	68 08 31 10 c0       	push   $0xc0103108
c0101dd3:	e8 88 05 00 00       	call   c0102360 <printf>
c0101dd8:	83 c4 10             	add    $0x10,%esp
c0101ddb:	90                   	nop
c0101ddc:	c9                   	leave  
c0101ddd:	c3                   	ret    

c0101dde <_ZL14set_vpage_usedP8bitmap_tm>:
c0101dde:	55                   	push   %ebp
c0101ddf:	89 e5                	mov    %esp,%ebp
c0101de1:	83 ec 08             	sub    $0x8,%esp
c0101de4:	83 ec 08             	sub    $0x8,%esp
c0101de7:	ff 75 0c             	push   0xc(%ebp)
c0101dea:	ff 75 08             	push   0x8(%ebp)
c0101ded:	e8 bd fd ff ff       	call   c0101baf <_Z13set_page_usedP8bitmap_tm>
c0101df2:	83 c4 10             	add    $0x10,%esp
c0101df5:	90                   	nop
c0101df6:	c9                   	leave  
c0101df7:	c3                   	ret    

c0101df8 <_ZL14set_vpage_freeP8bitmap_tm>:
c0101df8:	55                   	push   %ebp
c0101df9:	89 e5                	mov    %esp,%ebp
c0101dfb:	83 ec 08             	sub    $0x8,%esp
c0101dfe:	83 ec 08             	sub    $0x8,%esp
c0101e01:	ff 75 0c             	push   0xc(%ebp)
c0101e04:	ff 75 08             	push   0x8(%ebp)
c0101e07:	e8 f2 fd ff ff       	call   c0101bfe <_Z13set_page_freeP8bitmap_tm>
c0101e0c:	83 c4 10             	add    $0x10,%esp
c0101e0f:	90                   	nop
c0101e10:	c9                   	leave  
c0101e11:	c3                   	ret    

c0101e12 <_ZL15find_free_vpageP8bitmap_t>:
c0101e12:	55                   	push   %ebp
c0101e13:	89 e5                	mov    %esp,%ebp
c0101e15:	83 ec 08             	sub    $0x8,%esp
c0101e18:	83 ec 0c             	sub    $0xc,%esp
c0101e1b:	ff 75 08             	push   0x8(%ebp)
c0101e1e:	e8 2c fe ff ff       	call   c0101c4f <_Z14find_free_pageP8bitmap_t>
c0101e23:	83 c4 10             	add    $0x10,%esp
c0101e26:	c9                   	leave  
c0101e27:	c3                   	ret    

c0101e28 <_Z14vma_alloc_pagev>:
c0101e28:	55                   	push   %ebp
c0101e29:	89 e5                	mov    %esp,%ebp
c0101e2b:	83 ec 18             	sub    $0x18,%esp
c0101e2e:	83 ec 0c             	sub    $0xc,%esp
c0101e31:	68 28 88 10 c0       	push   $0xc0108828
c0101e36:	e8 d7 ff ff ff       	call   c0101e12 <_ZL15find_free_vpageP8bitmap_t>
c0101e3b:	83 c4 10             	add    $0x10,%esp
c0101e3e:	89 45 f4             	mov    %eax,-0xc(%ebp)
c0101e41:	83 7d f4 ff          	cmpl   $0xffffffff,-0xc(%ebp)
c0101e45:	75 07                	jne    c0101e4e <_Z14vma_alloc_pagev+0x26>
c0101e47:	b8 00 00 00 00       	mov    $0x0,%eax
c0101e4c:	eb 50                	jmp    c0101e9e <_Z14vma_alloc_pagev+0x76>
c0101e4e:	8b 45 f4             	mov    -0xc(%ebp),%eax
c0101e51:	83 ec 08             	sub    $0x8,%esp
c0101e54:	50                   	push   %eax
c0101e55:	68 28 88 10 c0       	push   $0xc0108828
c0101e5a:	e8 7f ff ff ff       	call   c0101dde <_ZL14set_vpage_usedP8bitmap_tm>
c0101e5f:	83 c4 10             	add    $0x10,%esp
c0101e62:	a1 30 88 10 c0       	mov    0xc0108830,%eax
c0101e67:	8b 55 f4             	mov    -0xc(%ebp),%edx
c0101e6a:	c1 e2 0c             	shl    $0xc,%edx
c0101e6d:	01 d0                	add    %edx,%eax
c0101e6f:	89 45 f0             	mov    %eax,-0x10(%ebp)
c0101e72:	e8 35 fe ff ff       	call   c0101cac <_Z14pmm_alloc_pagev>
c0101e77:	89 45 ec             	mov    %eax,-0x14(%ebp)
c0101e7a:	83 7d ec 00          	cmpl   $0x0,-0x14(%ebp)
c0101e7e:	75 1b                	jne    c0101e9b <_Z14vma_alloc_pagev+0x73>
c0101e80:	8b 45 f4             	mov    -0xc(%ebp),%eax
c0101e83:	83 ec 08             	sub    $0x8,%esp
c0101e86:	50                   	push   %eax
c0101e87:	68 28 88 10 c0       	push   $0xc0108828
c0101e8c:	e8 67 ff ff ff       	call   c0101df8 <_ZL14set_vpage_freeP8bitmap_tm>
c0101e91:	83 c4 10             	add    $0x10,%esp
c0101e94:	b8 00 00 00 00       	mov    $0x0,%eax
c0101e99:	eb 03                	jmp    c0101e9e <_Z14vma_alloc_pagev+0x76>
c0101e9b:	8b 45 f0             	mov    -0x10(%ebp),%eax
c0101e9e:	c9                   	leave  
c0101e9f:	c3                   	ret    

c0101ea0 <_Z13vma_free_pagePv>:
c0101ea0:	55                   	push   %ebp
c0101ea1:	89 e5                	mov    %esp,%ebp
c0101ea3:	83 ec 18             	sub    $0x18,%esp
c0101ea6:	8b 45 08             	mov    0x8(%ebp),%eax
c0101ea9:	89 45 f4             	mov    %eax,-0xc(%ebp)
c0101eac:	a1 30 88 10 c0       	mov    0xc0108830,%eax
c0101eb1:	39 45 f4             	cmp    %eax,-0xc(%ebp)
c0101eb4:	72 31                	jb     c0101ee7 <_Z13vma_free_pagePv+0x47>
c0101eb6:	a1 34 88 10 c0       	mov    0xc0108834,%eax
c0101ebb:	39 45 f4             	cmp    %eax,-0xc(%ebp)
c0101ebe:	73 27                	jae    c0101ee7 <_Z13vma_free_pagePv+0x47>
c0101ec0:	a1 30 88 10 c0       	mov    0xc0108830,%eax
c0101ec5:	8b 55 f4             	mov    -0xc(%ebp),%edx
c0101ec8:	29 c2                	sub    %eax,%edx
c0101eca:	89 d0                	mov    %edx,%eax
c0101ecc:	c1 e8 0c             	shr    $0xc,%eax
c0101ecf:	89 45 f0             	mov    %eax,-0x10(%ebp)
c0101ed2:	83 ec 08             	sub    $0x8,%esp
c0101ed5:	ff 75 f0             	push   -0x10(%ebp)
c0101ed8:	68 28 88 10 c0       	push   $0xc0108828
c0101edd:	e8 16 ff ff ff       	call   c0101df8 <_ZL14set_vpage_freeP8bitmap_tm>
c0101ee2:	83 c4 10             	add    $0x10,%esp
c0101ee5:	eb 01                	jmp    c0101ee8 <_Z13vma_free_pagePv+0x48>
c0101ee7:	90                   	nop
c0101ee8:	c9                   	leave  
c0101ee9:	c3                   	ret    

c0101eea <_ZL12get_pd_indexm>:
c0101eea:	55                   	push   %ebp
c0101eeb:	89 e5                	mov    %esp,%ebp
c0101eed:	8b 45 08             	mov    0x8(%ebp),%eax
c0101ef0:	c1 e8 16             	shr    $0x16,%eax
c0101ef3:	5d                   	pop    %ebp
c0101ef4:	c3                   	ret    

c0101ef5 <_ZL12get_pt_indexm>:
c0101ef5:	55                   	push   %ebp
c0101ef6:	89 e5                	mov    %esp,%ebp
c0101ef8:	8b 45 08             	mov    0x8(%ebp),%eax
c0101efb:	c1 e8 0c             	shr    $0xc,%eax
c0101efe:	25 ff 03 00 00       	and    $0x3ff,%eax
c0101f03:	5d                   	pop    %ebp
c0101f04:	c3                   	ret    

c0101f05 <_Z8map_pagePvS_m>:
c0101f05:	55                   	push   %ebp
c0101f06:	89 e5                	mov    %esp,%ebp
c0101f08:	83 ec 28             	sub    $0x28,%esp
c0101f0b:	8b 45 08             	mov    0x8(%ebp),%eax
c0101f0e:	89 45 f4             	mov    %eax,-0xc(%ebp)
c0101f11:	8b 45 0c             	mov    0xc(%ebp),%eax
c0101f14:	89 45 f0             	mov    %eax,-0x10(%ebp)
c0101f17:	ff 75 f4             	push   -0xc(%ebp)
c0101f1a:	e8 cb ff ff ff       	call   c0101eea <_ZL12get_pd_indexm>
c0101f1f:	83 c4 04             	add    $0x4,%esp
c0101f22:	89 45 ec             	mov    %eax,-0x14(%ebp)
c0101f25:	ff 75 f4             	push   -0xc(%ebp)
c0101f28:	e8 c8 ff ff ff       	call   c0101ef5 <_ZL12get_pt_indexm>
c0101f2d:	83 c4 04             	add    $0x4,%esp
c0101f30:	89 45 e8             	mov    %eax,-0x18(%ebp)
c0101f33:	c7 45 e4 00 60 10 c0 	movl   $0xc0106000,-0x1c(%ebp)
c0101f3a:	8b 45 ec             	mov    -0x14(%ebp),%eax
c0101f3d:	8d 14 85 00 00 00 00 	lea    0x0(,%eax,4),%edx
c0101f44:	8b 45 e4             	mov    -0x1c(%ebp),%eax
c0101f47:	01 d0                	add    %edx,%eax
c0101f49:	8b 00                	mov    (%eax),%eax
c0101f4b:	89 45 e0             	mov    %eax,-0x20(%ebp)
c0101f4e:	8b 45 e0             	mov    -0x20(%ebp),%eax
c0101f51:	83 e0 01             	and    $0x1,%eax
c0101f54:	85 c0                	test   %eax,%eax
c0101f56:	75 3a                	jne    c0101f92 <_Z8map_pagePvS_m+0x8d>
c0101f58:	e8 4f fd ff ff       	call   c0101cac <_Z14pmm_alloc_pagev>
c0101f5d:	89 45 dc             	mov    %eax,-0x24(%ebp)
c0101f60:	83 7d dc 00          	cmpl   $0x0,-0x24(%ebp)
c0101f64:	74 55                	je     c0101fbb <_Z8map_pagePvS_m+0xb6>
c0101f66:	83 ec 04             	sub    $0x4,%esp
c0101f69:	68 00 10 00 00       	push   $0x1000
c0101f6e:	6a 00                	push   $0x0
c0101f70:	ff 75 dc             	push   -0x24(%ebp)
c0101f73:	e8 77 07 00 00       	call   c01026ef <memset>
c0101f78:	83 c4 10             	add    $0x10,%esp
c0101f7b:	8b 55 dc             	mov    -0x24(%ebp),%edx
c0101f7e:	8b 45 ec             	mov    -0x14(%ebp),%eax
c0101f81:	8d 0c 85 00 00 00 00 	lea    0x0(,%eax,4),%ecx
c0101f88:	8b 45 e4             	mov    -0x1c(%ebp),%eax
c0101f8b:	01 c8                	add    %ecx,%eax
c0101f8d:	83 ca 03             	or     $0x3,%edx
c0101f90:	89 10                	mov    %edx,(%eax)
c0101f92:	8b 45 e0             	mov    -0x20(%ebp),%eax
c0101f95:	25 00 f0 ff ff       	and    $0xfffff000,%eax
c0101f9a:	89 45 d8             	mov    %eax,-0x28(%ebp)
c0101f9d:	8b 45 f0             	mov    -0x10(%ebp),%eax
c0101fa0:	0b 45 10             	or     0x10(%ebp),%eax
c0101fa3:	89 c2                	mov    %eax,%edx
c0101fa5:	8b 45 e8             	mov    -0x18(%ebp),%eax
c0101fa8:	8d 0c 85 00 00 00 00 	lea    0x0(,%eax,4),%ecx
c0101faf:	8b 45 d8             	mov    -0x28(%ebp),%eax
c0101fb2:	01 c8                	add    %ecx,%eax
c0101fb4:	83 ca 01             	or     $0x1,%edx
c0101fb7:	89 10                	mov    %edx,(%eax)
c0101fb9:	eb 01                	jmp    c0101fbc <_Z8map_pagePvS_m+0xb7>
c0101fbb:	90                   	nop
c0101fbc:	c9                   	leave  
c0101fbd:	c3                   	ret    

c0101fbe <_Z10unmap_pagePv>:
c0101fbe:	55                   	push   %ebp
c0101fbf:	89 e5                	mov    %esp,%ebp
c0101fc1:	83 ec 28             	sub    $0x28,%esp
c0101fc4:	8b 45 08             	mov    0x8(%ebp),%eax
c0101fc7:	89 45 f4             	mov    %eax,-0xc(%ebp)
c0101fca:	ff 75 f4             	push   -0xc(%ebp)
c0101fcd:	e8 18 ff ff ff       	call   c0101eea <_ZL12get_pd_indexm>
c0101fd2:	83 c4 04             	add    $0x4,%esp
c0101fd5:	89 45 f0             	mov    %eax,-0x10(%ebp)
c0101fd8:	ff 75 f4             	push   -0xc(%ebp)
c0101fdb:	e8 15 ff ff ff       	call   c0101ef5 <_ZL12get_pt_indexm>
c0101fe0:	83 c4 04             	add    $0x4,%esp
c0101fe3:	89 45 ec             	mov    %eax,-0x14(%ebp)
c0101fe6:	c7 45 e8 00 60 10 c0 	movl   $0xc0106000,-0x18(%ebp)
c0101fed:	8b 45 f0             	mov    -0x10(%ebp),%eax
c0101ff0:	8d 14 85 00 00 00 00 	lea    0x0(,%eax,4),%edx
c0101ff7:	8b 45 e8             	mov    -0x18(%ebp),%eax
c0101ffa:	01 d0                	add    %edx,%eax
c0101ffc:	8b 00                	mov    (%eax),%eax
c0101ffe:	89 45 e4             	mov    %eax,-0x1c(%ebp)
c0102001:	8b 45 e4             	mov    -0x1c(%ebp),%eax
c0102004:	83 e0 01             	and    $0x1,%eax
c0102007:	85 c0                	test   %eax,%eax
c0102009:	74 5a                	je     c0102065 <_Z10unmap_pagePv+0xa7>
c010200b:	8b 45 e4             	mov    -0x1c(%ebp),%eax
c010200e:	25 00 f0 ff ff       	and    $0xfffff000,%eax
c0102013:	89 45 e0             	mov    %eax,-0x20(%ebp)
c0102016:	8b 45 ec             	mov    -0x14(%ebp),%eax
c0102019:	8d 14 85 00 00 00 00 	lea    0x0(,%eax,4),%edx
c0102020:	8b 45 e0             	mov    -0x20(%ebp),%eax
c0102023:	01 d0                	add    %edx,%eax
c0102025:	8b 00                	mov    (%eax),%eax
c0102027:	89 45 dc             	mov    %eax,-0x24(%ebp)
c010202a:	8b 45 dc             	mov    -0x24(%ebp),%eax
c010202d:	83 e0 01             	and    $0x1,%eax
c0102030:	85 c0                	test   %eax,%eax
c0102032:	74 34                	je     c0102068 <_Z10unmap_pagePv+0xaa>
c0102034:	8b 45 ec             	mov    -0x14(%ebp),%eax
c0102037:	8d 14 85 00 00 00 00 	lea    0x0(,%eax,4),%edx
c010203e:	8b 45 e0             	mov    -0x20(%ebp),%eax
c0102041:	01 d0                	add    %edx,%eax
c0102043:	c7 00 00 00 00 00    	movl   $0x0,(%eax)
c0102049:	8b 45 dc             	mov    -0x24(%ebp),%eax
c010204c:	25 00 f0 ff ff       	and    $0xfffff000,%eax
c0102051:	89 45 d8             	mov    %eax,-0x28(%ebp)
c0102054:	8b 45 d8             	mov    -0x28(%ebp),%eax
c0102057:	83 ec 0c             	sub    $0xc,%esp
c010205a:	50                   	push   %eax
c010205b:	e8 95 fc ff ff       	call   c0101cf5 <_Z13pmm_free_pagePv>
c0102060:	83 c4 10             	add    $0x10,%esp
c0102063:	eb 04                	jmp    c0102069 <_Z10unmap_pagePv+0xab>
c0102065:	90                   	nop
c0102066:	eb 01                	jmp    c0102069 <_Z10unmap_pagePv+0xab>
c0102068:	90                   	nop
c0102069:	c9                   	leave  
c010206a:	c3                   	ret    

c010206b <inb>:
c010206b:	55                   	push   %ebp
c010206c:	89 e5                	mov    %esp,%ebp
c010206e:	83 ec 14             	sub    $0x14,%esp
c0102071:	8b 45 08             	mov    0x8(%ebp),%eax
c0102074:	66 89 45 ec          	mov    %ax,-0x14(%ebp)
c0102078:	0f b7 45 ec          	movzwl -0x14(%ebp),%eax
c010207c:	89 c2                	mov    %eax,%edx
c010207e:	ec                   	in     (%dx),%al
c010207f:	88 45 ff             	mov    %al,-0x1(%ebp)
c0102082:	0f b6 45 ff          	movzbl -0x1(%ebp),%eax
c0102086:	c9                   	leave  
c0102087:	c3                   	ret    

c0102088 <outb>:
c0102088:	55                   	push   %ebp
c0102089:	89 e5                	mov    %esp,%ebp
c010208b:	83 ec 08             	sub    $0x8,%esp
c010208e:	8b 55 08             	mov    0x8(%ebp),%edx
c0102091:	8b 45 0c             	mov    0xc(%ebp),%eax
c0102094:	66 89 55 fc          	mov    %dx,-0x4(%ebp)
c0102098:	88 45 f8             	mov    %al,-0x8(%ebp)
c010209b:	0f b6 45 f8          	movzbl -0x8(%ebp),%eax
c010209f:	0f b7 55 fc          	movzwl -0x4(%ebp),%edx
c01020a3:	ee                   	out    %al,(%dx)
c01020a4:	90                   	nop
c01020a5:	c9                   	leave  
c01020a6:	c3                   	ret    

c01020a7 <_Z17scancode_to_asciihb>:
c01020a7:	55                   	push   %ebp
c01020a8:	89 e5                	mov    %esp,%ebp
c01020aa:	83 ec 08             	sub    $0x8,%esp
c01020ad:	8b 55 08             	mov    0x8(%ebp),%edx
c01020b0:	8b 45 0c             	mov    0xc(%ebp),%eax
c01020b3:	88 55 fc             	mov    %dl,-0x4(%ebp)
c01020b6:	88 45 f8             	mov    %al,-0x8(%ebp)
c01020b9:	0f b6 45 fc          	movzbl -0x4(%ebp),%eax
c01020bd:	84 c0                	test   %al,%al
c01020bf:	79 07                	jns    c01020c8 <_Z17scancode_to_asciihb+0x21>
c01020c1:	b8 00 00 00 00       	mov    $0x0,%eax
c01020c6:	eb 1e                	jmp    c01020e6 <_Z17scancode_to_asciihb+0x3f>
c01020c8:	80 7d f8 00          	cmpb   $0x0,-0x8(%ebp)
c01020cc:	74 0d                	je     c01020db <_Z17scancode_to_asciihb+0x34>
c01020ce:	0f b6 45 fc          	movzbl -0x4(%ebp),%eax
c01020d2:	0f b6 80 c0 31 10 c0 	movzbl -0x3fefce40(%eax),%eax
c01020d9:	eb 0b                	jmp    c01020e6 <_Z17scancode_to_asciihb+0x3f>
c01020db:	0f b6 45 fc          	movzbl -0x4(%ebp),%eax
c01020df:	0f b6 80 40 31 10 c0 	movzbl -0x3fefcec0(%eax),%eax
c01020e6:	c9                   	leave  
c01020e7:	c3                   	ret    

c01020e8 <_Z19keyboard_buffer_puth>:
c01020e8:	55                   	push   %ebp
c01020e9:	89 e5                	mov    %esp,%ebp
c01020eb:	83 ec 14             	sub    $0x14,%esp
c01020ee:	8b 45 08             	mov    0x8(%ebp),%eax
c01020f1:	88 45 ec             	mov    %al,-0x14(%ebp)
c01020f4:	a1 40 89 10 c0       	mov    0xc0108940,%eax
c01020f9:	83 c0 01             	add    $0x1,%eax
c01020fc:	25 ff 00 00 00       	and    $0xff,%eax
c0102101:	89 45 fc             	mov    %eax,-0x4(%ebp)
c0102104:	a1 44 89 10 c0       	mov    0xc0108944,%eax
c0102109:	39 45 fc             	cmp    %eax,-0x4(%ebp)
c010210c:	0f 95 c0             	setne  %al
c010210f:	84 c0                	test   %al,%al
c0102111:	74 17                	je     c010212a <_Z19keyboard_buffer_puth+0x42>
c0102113:	a1 40 89 10 c0       	mov    0xc0108940,%eax
c0102118:	0f b6 55 ec          	movzbl -0x14(%ebp),%edx
c010211c:	88 90 40 88 10 c0    	mov    %dl,-0x3fef77c0(%eax)
c0102122:	8b 45 fc             	mov    -0x4(%ebp),%eax
c0102125:	a3 40 89 10 c0       	mov    %eax,0xc0108940
c010212a:	90                   	nop
c010212b:	c9                   	leave  
c010212c:	c3                   	ret    

c010212d <keyboard_handler>:
c010212d:	55                   	push   %ebp
c010212e:	89 e5                	mov    %esp,%ebp
c0102130:	83 ec 18             	sub    $0x18,%esp
c0102133:	83 ec 0c             	sub    $0xc,%esp
c0102136:	6a 60                	push   $0x60
c0102138:	e8 2e ff ff ff       	call   c010206b <inb>
c010213d:	83 c4 10             	add    $0x10,%esp
c0102140:	88 45 f7             	mov    %al,-0x9(%ebp)
c0102143:	80 7d f7 2a          	cmpb   $0x2a,-0x9(%ebp)
c0102147:	74 06                	je     c010214f <keyboard_handler+0x22>
c0102149:	80 7d f7 36          	cmpb   $0x36,-0x9(%ebp)
c010214d:	75 18                	jne    c0102167 <keyboard_handler+0x3a>
c010214f:	0f b6 45 f7          	movzbl -0x9(%ebp),%eax
c0102153:	84 c0                	test   %al,%al
c0102155:	79 09                	jns    c0102160 <keyboard_handler+0x33>
c0102157:	c6 05 48 89 10 c0 00 	movb   $0x0,0xc0108948
c010215e:	eb 07                	jmp    c0102167 <keyboard_handler+0x3a>
c0102160:	c6 05 48 89 10 c0 01 	movb   $0x1,0xc0108948
c0102167:	0f b6 45 f7          	movzbl -0x9(%ebp),%eax
c010216b:	83 ec 0c             	sub    $0xc,%esp
c010216e:	50                   	push   %eax
c010216f:	e8 74 ff ff ff       	call   c01020e8 <_Z19keyboard_buffer_puth>
c0102174:	83 c4 10             	add    $0x10,%esp
c0102177:	e8 fa f6 ff ff       	call   c0101876 <_ZN4APIC8send_eoiEv>
c010217c:	90                   	nop
c010217d:	c9                   	leave  
c010217e:	c3                   	ret    

c010217f <_Z16keyboard_get_keyv>:
c010217f:	55                   	push   %ebp
c0102180:	89 e5                	mov    %esp,%ebp
c0102182:	83 ec 18             	sub    $0x18,%esp
c0102185:	8b 15 40 89 10 c0    	mov    0xc0108940,%edx
c010218b:	a1 44 89 10 c0       	mov    0xc0108944,%eax
c0102190:	39 c2                	cmp    %eax,%edx
c0102192:	0f 94 c0             	sete   %al
c0102195:	84 c0                	test   %al,%al
c0102197:	74 07                	je     c01021a0 <_Z16keyboard_get_keyv+0x21>
c0102199:	b8 00 00 00 00       	mov    $0x0,%eax
c010219e:	eb 75                	jmp    c0102215 <_Z16keyboard_get_keyv+0x96>
c01021a0:	a1 44 89 10 c0       	mov    0xc0108944,%eax
c01021a5:	0f b6 80 40 88 10 c0 	movzbl -0x3fef77c0(%eax),%eax
c01021ac:	88 45 f7             	mov    %al,-0x9(%ebp)
c01021af:	a1 44 89 10 c0       	mov    0xc0108944,%eax
c01021b4:	83 c0 01             	add    $0x1,%eax
c01021b7:	0f b6 c0             	movzbl %al,%eax
c01021ba:	a3 44 89 10 c0       	mov    %eax,0xc0108944
c01021bf:	0f b6 45 f7          	movzbl -0x9(%ebp),%eax
c01021c3:	c0 e8 07             	shr    $0x7,%al
c01021c6:	88 45 f6             	mov    %al,-0xa(%ebp)
c01021c9:	0f b6 45 f7          	movzbl -0x9(%ebp),%eax
c01021cd:	83 e0 7f             	and    $0x7f,%eax
c01021d0:	88 45 f5             	mov    %al,-0xb(%ebp)
c01021d3:	80 7d f6 00          	cmpb   $0x0,-0xa(%ebp)
c01021d7:	74 1a                	je     c01021f3 <_Z16keyboard_get_keyv+0x74>
c01021d9:	80 7d f5 2a          	cmpb   $0x2a,-0xb(%ebp)
c01021dd:	74 06                	je     c01021e5 <_Z16keyboard_get_keyv+0x66>
c01021df:	80 7d f5 36          	cmpb   $0x36,-0xb(%ebp)
c01021e3:	75 07                	jne    c01021ec <_Z16keyboard_get_keyv+0x6d>
c01021e5:	c6 05 48 89 10 c0 00 	movb   $0x0,0xc0108948
c01021ec:	b8 00 00 00 00       	mov    $0x0,%eax
c01021f1:	eb 22                	jmp    c0102215 <_Z16keyboard_get_keyv+0x96>
c01021f3:	0f b6 05 48 89 10 c0 	movzbl 0xc0108948,%eax
c01021fa:	0f b6 d0             	movzbl %al,%edx
c01021fd:	0f b6 45 f5          	movzbl -0xb(%ebp),%eax
c0102201:	83 ec 08             	sub    $0x8,%esp
c0102204:	52                   	push   %edx
c0102205:	50                   	push   %eax
c0102206:	e8 9c fe ff ff       	call   c01020a7 <_Z17scancode_to_asciihb>
c010220b:	83 c4 10             	add    $0x10,%esp
c010220e:	88 45 f4             	mov    %al,-0xc(%ebp)
c0102211:	0f b6 45 f4          	movzbl -0xc(%ebp),%eax
c0102215:	c9                   	leave  
c0102216:	c3                   	ret    

c0102217 <_Z21handle_keyboard_inputv>:
c0102217:	55                   	push   %ebp
c0102218:	89 e5                	mov    %esp,%ebp
c010221a:	83 ec 18             	sub    $0x18,%esp
c010221d:	e8 5d ff ff ff       	call   c010217f <_Z16keyboard_get_keyv>
c0102222:	88 45 f7             	mov    %al,-0x9(%ebp)
c0102225:	80 7d f7 00          	cmpb   $0x0,-0x9(%ebp)
c0102229:	74 2a                	je     c0102255 <_Z21handle_keyboard_inputv+0x3e>
c010222b:	0f b6 05 48 89 10 c0 	movzbl 0xc0108948,%eax
c0102232:	0f b6 d0             	movzbl %al,%edx
c0102235:	0f b6 45 f7          	movzbl -0x9(%ebp),%eax
c0102239:	83 ec 08             	sub    $0x8,%esp
c010223c:	52                   	push   %edx
c010223d:	50                   	push   %eax
c010223e:	e8 64 fe ff ff       	call   c01020a7 <_Z17scancode_to_asciihb>
c0102243:	83 c4 10             	add    $0x10,%esp
c0102246:	0f be c0             	movsbl %al,%eax
c0102249:	83 ec 0c             	sub    $0xc,%esp
c010224c:	50                   	push   %eax
c010224d:	e8 37 f1 ff ff       	call   c0101389 <terminal_putchar>
c0102252:	83 c4 10             	add    $0x10,%esp
c0102255:	90                   	nop
c0102256:	c9                   	leave  
c0102257:	c3                   	ret    

c0102258 <_ZL5printPKcm>:
c0102258:	55                   	push   %ebp
c0102259:	89 e5                	mov    %esp,%ebp
c010225b:	83 ec 18             	sub    $0x18,%esp
c010225e:	8b 45 08             	mov    0x8(%ebp),%eax
c0102261:	89 45 f0             	mov    %eax,-0x10(%ebp)
c0102264:	c7 45 f4 00 00 00 00 	movl   $0x0,-0xc(%ebp)
c010226b:	eb 2f                	jmp    c010229c <_ZL5printPKcm+0x44>
c010226d:	8b 55 f0             	mov    -0x10(%ebp),%edx
c0102270:	8b 45 f4             	mov    -0xc(%ebp),%eax
c0102273:	01 d0                	add    %edx,%eax
c0102275:	0f b6 00             	movzbl (%eax),%eax
c0102278:	0f b6 c0             	movzbl %al,%eax
c010227b:	83 ec 0c             	sub    $0xc,%esp
c010227e:	50                   	push   %eax
c010227f:	e8 49 04 00 00       	call   c01026cd <putchar>
c0102284:	83 c4 10             	add    $0x10,%esp
c0102287:	83 f8 ff             	cmp    $0xffffffff,%eax
c010228a:	0f 94 c0             	sete   %al
c010228d:	84 c0                	test   %al,%al
c010228f:	74 07                	je     c0102298 <_ZL5printPKcm+0x40>
c0102291:	b8 00 00 00 00       	mov    $0x0,%eax
c0102296:	eb 11                	jmp    c01022a9 <_ZL5printPKcm+0x51>
c0102298:	83 45 f4 01          	addl   $0x1,-0xc(%ebp)
c010229c:	8b 45 f4             	mov    -0xc(%ebp),%eax
c010229f:	3b 45 0c             	cmp    0xc(%ebp),%eax
c01022a2:	72 c9                	jb     c010226d <_ZL5printPKcm+0x15>
c01022a4:	b8 01 00 00 00       	mov    $0x1,%eax
c01022a9:	c9                   	leave  
c01022aa:	c3                   	ret    

c01022ab <_ZL12print_numberlib>:
c01022ab:	55                   	push   %ebp
c01022ac:	89 e5                	mov    %esp,%ebp
c01022ae:	83 ec 38             	sub    $0x38,%esp
c01022b1:	8b 45 10             	mov    0x10(%ebp),%eax
c01022b4:	88 45 d4             	mov    %al,-0x2c(%ebp)
c01022b7:	c7 45 ec 40 32 10 c0 	movl   $0xc0103240,-0x14(%ebp)
c01022be:	c7 45 f4 13 00 00 00 	movl   $0x13,-0xc(%ebp)
c01022c5:	c6 45 f3 00          	movb   $0x0,-0xd(%ebp)
c01022c9:	8d 55 d8             	lea    -0x28(%ebp),%edx
c01022cc:	8b 45 f4             	mov    -0xc(%ebp),%eax
c01022cf:	01 d0                	add    %edx,%eax
c01022d1:	c6 00 00             	movb   $0x0,(%eax)
c01022d4:	80 7d d4 00          	cmpb   $0x0,-0x2c(%ebp)
c01022d8:	74 1f                	je     c01022f9 <_ZL12print_numberlib+0x4e>
c01022da:	83 7d 08 00          	cmpl   $0x0,0x8(%ebp)
c01022de:	79 19                	jns    c01022f9 <_ZL12print_numberlib+0x4e>
c01022e0:	c6 45 f3 01          	movb   $0x1,-0xd(%ebp)
c01022e4:	81 7d 08 00 00 00 80 	cmpl   $0x80000000,0x8(%ebp)
c01022eb:	75 09                	jne    c01022f6 <_ZL12print_numberlib+0x4b>
c01022ed:	f7 55 08             	notl   0x8(%ebp)
c01022f0:	83 45 08 01          	addl   $0x1,0x8(%ebp)
c01022f4:	eb 03                	jmp    c01022f9 <_ZL12print_numberlib+0x4e>
c01022f6:	f7 5d 08             	negl   0x8(%ebp)
c01022f9:	8b 45 08             	mov    0x8(%ebp),%eax
c01022fc:	99                   	cltd   
c01022fd:	f7 7d 0c             	idivl  0xc(%ebp)
c0102300:	89 d0                	mov    %edx,%eax
c0102302:	89 c2                	mov    %eax,%edx
c0102304:	8b 45 ec             	mov    -0x14(%ebp),%eax
c0102307:	01 d0                	add    %edx,%eax
c0102309:	83 6d f4 01          	subl   $0x1,-0xc(%ebp)
c010230d:	0f b6 00             	movzbl (%eax),%eax
c0102310:	8d 4d d8             	lea    -0x28(%ebp),%ecx
c0102313:	8b 55 f4             	mov    -0xc(%ebp),%edx
c0102316:	01 ca                	add    %ecx,%edx
c0102318:	88 02                	mov    %al,(%edx)
c010231a:	8b 45 08             	mov    0x8(%ebp),%eax
c010231d:	99                   	cltd   
c010231e:	f7 7d 0c             	idivl  0xc(%ebp)
c0102321:	89 45 08             	mov    %eax,0x8(%ebp)
c0102324:	83 7d 08 00          	cmpl   $0x0,0x8(%ebp)
c0102328:	7f cf                	jg     c01022f9 <_ZL12print_numberlib+0x4e>
c010232a:	80 7d f3 00          	cmpb   $0x0,-0xd(%ebp)
c010232e:	74 0f                	je     c010233f <_ZL12print_numberlib+0x94>
c0102330:	83 6d f4 01          	subl   $0x1,-0xc(%ebp)
c0102334:	8d 55 d8             	lea    -0x28(%ebp),%edx
c0102337:	8b 45 f4             	mov    -0xc(%ebp),%eax
c010233a:	01 d0                	add    %edx,%eax
c010233c:	c6 00 2d             	movb   $0x2d,(%eax)
c010233f:	b8 13 00 00 00       	mov    $0x13,%eax
c0102344:	2b 45 f4             	sub    -0xc(%ebp),%eax
c0102347:	89 c1                	mov    %eax,%ecx
c0102349:	8d 55 d8             	lea    -0x28(%ebp),%edx
c010234c:	8b 45 f4             	mov    -0xc(%ebp),%eax
c010234f:	01 d0                	add    %edx,%eax
c0102351:	83 ec 08             	sub    $0x8,%esp
c0102354:	51                   	push   %ecx
c0102355:	50                   	push   %eax
c0102356:	e8 fd fe ff ff       	call   c0102258 <_ZL5printPKcm>
c010235b:	83 c4 10             	add    $0x10,%esp
c010235e:	c9                   	leave  
c010235f:	c3                   	ret    

c0102360 <printf>:
c0102360:	55                   	push   %ebp
c0102361:	89 e5                	mov    %esp,%ebp
c0102363:	83 ec 48             	sub    $0x48,%esp
c0102366:	8d 45 0c             	lea    0xc(%ebp),%eax
c0102369:	89 45 c8             	mov    %eax,-0x38(%ebp)
c010236c:	c7 45 f4 00 00 00 00 	movl   $0x0,-0xc(%ebp)
c0102373:	e9 42 03 00 00       	jmp    c01026ba <printf+0x35a>
c0102378:	b8 ff ff ff 7f       	mov    $0x7fffffff,%eax
c010237d:	2b 45 f4             	sub    -0xc(%ebp),%eax
c0102380:	89 45 ec             	mov    %eax,-0x14(%ebp)
c0102383:	8b 45 08             	mov    0x8(%ebp),%eax
c0102386:	0f b6 00             	movzbl (%eax),%eax
c0102389:	3c 25                	cmp    $0x25,%al
c010238b:	75 11                	jne    c010239e <printf+0x3e>
c010238d:	8b 45 08             	mov    0x8(%ebp),%eax
c0102390:	83 c0 01             	add    $0x1,%eax
c0102393:	0f b6 00             	movzbl (%eax),%eax
c0102396:	3c 25                	cmp    $0x25,%al
c0102398:	0f 85 83 00 00 00    	jne    c0102421 <printf+0xc1>
c010239e:	8b 45 08             	mov    0x8(%ebp),%eax
c01023a1:	0f b6 00             	movzbl (%eax),%eax
c01023a4:	3c 25                	cmp    $0x25,%al
c01023a6:	75 04                	jne    c01023ac <printf+0x4c>
c01023a8:	83 45 08 01          	addl   $0x1,0x8(%ebp)
c01023ac:	c7 45 f0 01 00 00 00 	movl   $0x1,-0x10(%ebp)
c01023b3:	eb 04                	jmp    c01023b9 <printf+0x59>
c01023b5:	83 45 f0 01          	addl   $0x1,-0x10(%ebp)
c01023b9:	8b 55 08             	mov    0x8(%ebp),%edx
c01023bc:	8b 45 f0             	mov    -0x10(%ebp),%eax
c01023bf:	01 d0                	add    %edx,%eax
c01023c1:	0f b6 00             	movzbl (%eax),%eax
c01023c4:	84 c0                	test   %al,%al
c01023c6:	74 0f                	je     c01023d7 <printf+0x77>
c01023c8:	8b 55 08             	mov    0x8(%ebp),%edx
c01023cb:	8b 45 f0             	mov    -0x10(%ebp),%eax
c01023ce:	01 d0                	add    %edx,%eax
c01023d0:	0f b6 00             	movzbl (%eax),%eax
c01023d3:	3c 25                	cmp    $0x25,%al
c01023d5:	75 de                	jne    c01023b5 <printf+0x55>
c01023d7:	8b 45 ec             	mov    -0x14(%ebp),%eax
c01023da:	3b 45 f0             	cmp    -0x10(%ebp),%eax
c01023dd:	73 0a                	jae    c01023e9 <printf+0x89>
c01023df:	b8 ff ff ff ff       	mov    $0xffffffff,%eax
c01023e4:	e9 e2 02 00 00       	jmp    c01026cb <printf+0x36b>
c01023e9:	83 ec 08             	sub    $0x8,%esp
c01023ec:	ff 75 f0             	push   -0x10(%ebp)
c01023ef:	ff 75 08             	push   0x8(%ebp)
c01023f2:	e8 61 fe ff ff       	call   c0102258 <_ZL5printPKcm>
c01023f7:	83 c4 10             	add    $0x10,%esp
c01023fa:	83 f0 01             	xor    $0x1,%eax
c01023fd:	84 c0                	test   %al,%al
c01023ff:	74 0a                	je     c010240b <printf+0xab>
c0102401:	b8 ff ff ff ff       	mov    $0xffffffff,%eax
c0102406:	e9 c0 02 00 00       	jmp    c01026cb <printf+0x36b>
c010240b:	8b 45 f0             	mov    -0x10(%ebp),%eax
c010240e:	01 45 08             	add    %eax,0x8(%ebp)
c0102411:	8b 55 f4             	mov    -0xc(%ebp),%edx
c0102414:	8b 45 f0             	mov    -0x10(%ebp),%eax
c0102417:	01 d0                	add    %edx,%eax
c0102419:	89 45 f4             	mov    %eax,-0xc(%ebp)
c010241c:	e9 99 02 00 00       	jmp    c01026ba <printf+0x35a>
c0102421:	8b 45 08             	mov    0x8(%ebp),%eax
c0102424:	8d 50 01             	lea    0x1(%eax),%edx
c0102427:	89 55 08             	mov    %edx,0x8(%ebp)
c010242a:	89 45 e8             	mov    %eax,-0x18(%ebp)
c010242d:	8b 45 08             	mov    0x8(%ebp),%eax
c0102430:	0f b6 00             	movzbl (%eax),%eax
c0102433:	3c 63                	cmp    $0x63,%al
c0102435:	75 4d                	jne    c0102484 <printf+0x124>
c0102437:	83 45 08 01          	addl   $0x1,0x8(%ebp)
c010243b:	8b 45 c8             	mov    -0x38(%ebp),%eax
c010243e:	8d 50 04             	lea    0x4(%eax),%edx
c0102441:	89 55 c8             	mov    %edx,-0x38(%ebp)
c0102444:	8b 00                	mov    (%eax),%eax
c0102446:	88 45 c7             	mov    %al,-0x39(%ebp)
c0102449:	83 7d ec 00          	cmpl   $0x0,-0x14(%ebp)
c010244d:	75 0a                	jne    c0102459 <printf+0xf9>
c010244f:	b8 ff ff ff ff       	mov    $0xffffffff,%eax
c0102454:	e9 72 02 00 00       	jmp    c01026cb <printf+0x36b>
c0102459:	83 ec 08             	sub    $0x8,%esp
c010245c:	6a 01                	push   $0x1
c010245e:	8d 45 c7             	lea    -0x39(%ebp),%eax
c0102461:	50                   	push   %eax
c0102462:	e8 f1 fd ff ff       	call   c0102258 <_ZL5printPKcm>
c0102467:	83 c4 10             	add    $0x10,%esp
c010246a:	83 f0 01             	xor    $0x1,%eax
c010246d:	84 c0                	test   %al,%al
c010246f:	74 0a                	je     c010247b <printf+0x11b>
c0102471:	b8 ff ff ff ff       	mov    $0xffffffff,%eax
c0102476:	e9 50 02 00 00       	jmp    c01026cb <printf+0x36b>
c010247b:	83 45 f4 01          	addl   $0x1,-0xc(%ebp)
c010247f:	e9 36 02 00 00       	jmp    c01026ba <printf+0x35a>
c0102484:	8b 45 08             	mov    0x8(%ebp),%eax
c0102487:	0f b6 00             	movzbl (%eax),%eax
c010248a:	3c 73                	cmp    $0x73,%al
c010248c:	75 67                	jne    c01024f5 <printf+0x195>
c010248e:	83 45 08 01          	addl   $0x1,0x8(%ebp)
c0102492:	8b 45 c8             	mov    -0x38(%ebp),%eax
c0102495:	8d 50 04             	lea    0x4(%eax),%edx
c0102498:	89 55 c8             	mov    %edx,-0x38(%ebp)
c010249b:	8b 00                	mov    (%eax),%eax
c010249d:	89 45 d0             	mov    %eax,-0x30(%ebp)
c01024a0:	83 ec 0c             	sub    $0xc,%esp
c01024a3:	ff 75 d0             	push   -0x30(%ebp)
c01024a6:	e8 77 02 00 00       	call   c0102722 <strlen>
c01024ab:	83 c4 10             	add    $0x10,%esp
c01024ae:	89 45 cc             	mov    %eax,-0x34(%ebp)
c01024b1:	8b 45 ec             	mov    -0x14(%ebp),%eax
c01024b4:	3b 45 cc             	cmp    -0x34(%ebp),%eax
c01024b7:	73 0a                	jae    c01024c3 <printf+0x163>
c01024b9:	b8 ff ff ff ff       	mov    $0xffffffff,%eax
c01024be:	e9 08 02 00 00       	jmp    c01026cb <printf+0x36b>
c01024c3:	83 ec 08             	sub    $0x8,%esp
c01024c6:	ff 75 cc             	push   -0x34(%ebp)
c01024c9:	ff 75 d0             	push   -0x30(%ebp)
c01024cc:	e8 87 fd ff ff       	call   c0102258 <_ZL5printPKcm>
c01024d1:	83 c4 10             	add    $0x10,%esp
c01024d4:	83 f0 01             	xor    $0x1,%eax
c01024d7:	84 c0                	test   %al,%al
c01024d9:	74 0a                	je     c01024e5 <printf+0x185>
c01024db:	b8 ff ff ff ff       	mov    $0xffffffff,%eax
c01024e0:	e9 e6 01 00 00       	jmp    c01026cb <printf+0x36b>
c01024e5:	8b 55 f4             	mov    -0xc(%ebp),%edx
c01024e8:	8b 45 cc             	mov    -0x34(%ebp),%eax
c01024eb:	01 d0                	add    %edx,%eax
c01024ed:	89 45 f4             	mov    %eax,-0xc(%ebp)
c01024f0:	e9 c5 01 00 00       	jmp    c01026ba <printf+0x35a>
c01024f5:	8b 45 08             	mov    0x8(%ebp),%eax
c01024f8:	0f b6 00             	movzbl (%eax),%eax
c01024fb:	3c 70                	cmp    $0x70,%al
c01024fd:	75 71                	jne    c0102570 <printf+0x210>
c01024ff:	83 45 08 01          	addl   $0x1,0x8(%ebp)
c0102503:	8b 45 c8             	mov    -0x38(%ebp),%eax
c0102506:	8d 50 04             	lea    0x4(%eax),%edx
c0102509:	89 55 c8             	mov    %edx,-0x38(%ebp)
c010250c:	8b 00                	mov    (%eax),%eax
c010250e:	89 45 d4             	mov    %eax,-0x2c(%ebp)
c0102511:	83 7d ec 00          	cmpl   $0x0,-0x14(%ebp)
c0102515:	75 0a                	jne    c0102521 <printf+0x1c1>
c0102517:	b8 ff ff ff ff       	mov    $0xffffffff,%eax
c010251c:	e9 aa 01 00 00       	jmp    c01026cb <printf+0x36b>
c0102521:	83 ec 08             	sub    $0x8,%esp
c0102524:	6a 02                	push   $0x2
c0102526:	68 51 32 10 c0       	push   $0xc0103251
c010252b:	e8 28 fd ff ff       	call   c0102258 <_ZL5printPKcm>
c0102530:	83 c4 10             	add    $0x10,%esp
c0102533:	83 f0 01             	xor    $0x1,%eax
c0102536:	84 c0                	test   %al,%al
c0102538:	74 0a                	je     c0102544 <printf+0x1e4>
c010253a:	b8 ff ff ff ff       	mov    $0xffffffff,%eax
c010253f:	e9 87 01 00 00       	jmp    c01026cb <printf+0x36b>
c0102544:	83 45 f4 02          	addl   $0x2,-0xc(%ebp)
c0102548:	8b 45 d4             	mov    -0x2c(%ebp),%eax
c010254b:	83 ec 04             	sub    $0x4,%esp
c010254e:	6a 00                	push   $0x0
c0102550:	6a 10                	push   $0x10
c0102552:	50                   	push   %eax
c0102553:	e8 53 fd ff ff       	call   c01022ab <_ZL12print_numberlib>
c0102558:	83 c4 10             	add    $0x10,%esp
c010255b:	83 f0 01             	xor    $0x1,%eax
c010255e:	84 c0                	test   %al,%al
c0102560:	0f 84 54 01 00 00    	je     c01026ba <printf+0x35a>
c0102566:	b8 ff ff ff ff       	mov    $0xffffffff,%eax
c010256b:	e9 5b 01 00 00       	jmp    c01026cb <printf+0x36b>
c0102570:	8b 45 08             	mov    0x8(%ebp),%eax
c0102573:	0f b6 00             	movzbl (%eax),%eax
c0102576:	3c 78                	cmp    $0x78,%al
c0102578:	75 4a                	jne    c01025c4 <printf+0x264>
c010257a:	83 45 08 01          	addl   $0x1,0x8(%ebp)
c010257e:	8b 45 c8             	mov    -0x38(%ebp),%eax
c0102581:	8d 50 04             	lea    0x4(%eax),%edx
c0102584:	89 55 c8             	mov    %edx,-0x38(%ebp)
c0102587:	8b 00                	mov    (%eax),%eax
c0102589:	89 45 d8             	mov    %eax,-0x28(%ebp)
c010258c:	83 7d ec 00          	cmpl   $0x0,-0x14(%ebp)
c0102590:	75 0a                	jne    c010259c <printf+0x23c>
c0102592:	b8 ff ff ff ff       	mov    $0xffffffff,%eax
c0102597:	e9 2f 01 00 00       	jmp    c01026cb <printf+0x36b>
c010259c:	8b 45 d8             	mov    -0x28(%ebp),%eax
c010259f:	83 ec 04             	sub    $0x4,%esp
c01025a2:	6a 00                	push   $0x0
c01025a4:	6a 10                	push   $0x10
c01025a6:	50                   	push   %eax
c01025a7:	e8 ff fc ff ff       	call   c01022ab <_ZL12print_numberlib>
c01025ac:	83 c4 10             	add    $0x10,%esp
c01025af:	83 f0 01             	xor    $0x1,%eax
c01025b2:	84 c0                	test   %al,%al
c01025b4:	0f 84 00 01 00 00    	je     c01026ba <printf+0x35a>
c01025ba:	b8 ff ff ff ff       	mov    $0xffffffff,%eax
c01025bf:	e9 07 01 00 00       	jmp    c01026cb <printf+0x36b>
c01025c4:	8b 45 08             	mov    0x8(%ebp),%eax
c01025c7:	0f b6 00             	movzbl (%eax),%eax
c01025ca:	3c 75                	cmp    $0x75,%al
c01025cc:	75 4a                	jne    c0102618 <printf+0x2b8>
c01025ce:	83 45 08 01          	addl   $0x1,0x8(%ebp)
c01025d2:	8b 45 c8             	mov    -0x38(%ebp),%eax
c01025d5:	8d 50 04             	lea    0x4(%eax),%edx
c01025d8:	89 55 c8             	mov    %edx,-0x38(%ebp)
c01025db:	8b 00                	mov    (%eax),%eax
c01025dd:	89 45 dc             	mov    %eax,-0x24(%ebp)
c01025e0:	83 7d ec 00          	cmpl   $0x0,-0x14(%ebp)
c01025e4:	75 0a                	jne    c01025f0 <printf+0x290>
c01025e6:	b8 ff ff ff ff       	mov    $0xffffffff,%eax
c01025eb:	e9 db 00 00 00       	jmp    c01026cb <printf+0x36b>
c01025f0:	8b 45 dc             	mov    -0x24(%ebp),%eax
c01025f3:	83 ec 04             	sub    $0x4,%esp
c01025f6:	6a 00                	push   $0x0
c01025f8:	6a 0a                	push   $0xa
c01025fa:	50                   	push   %eax
c01025fb:	e8 ab fc ff ff       	call   c01022ab <_ZL12print_numberlib>
c0102600:	83 c4 10             	add    $0x10,%esp
c0102603:	83 f0 01             	xor    $0x1,%eax
c0102606:	84 c0                	test   %al,%al
c0102608:	0f 84 ac 00 00 00    	je     c01026ba <printf+0x35a>
c010260e:	b8 ff ff ff ff       	mov    $0xffffffff,%eax
c0102613:	e9 b3 00 00 00       	jmp    c01026cb <printf+0x36b>
c0102618:	8b 45 08             	mov    0x8(%ebp),%eax
c010261b:	0f b6 00             	movzbl (%eax),%eax
c010261e:	3c 64                	cmp    $0x64,%al
c0102620:	75 42                	jne    c0102664 <printf+0x304>
c0102622:	83 45 08 01          	addl   $0x1,0x8(%ebp)
c0102626:	8b 45 c8             	mov    -0x38(%ebp),%eax
c0102629:	8d 50 04             	lea    0x4(%eax),%edx
c010262c:	89 55 c8             	mov    %edx,-0x38(%ebp)
c010262f:	8b 00                	mov    (%eax),%eax
c0102631:	89 45 e0             	mov    %eax,-0x20(%ebp)
c0102634:	83 7d ec 00          	cmpl   $0x0,-0x14(%ebp)
c0102638:	75 0a                	jne    c0102644 <printf+0x2e4>
c010263a:	b8 ff ff ff ff       	mov    $0xffffffff,%eax
c010263f:	e9 87 00 00 00       	jmp    c01026cb <printf+0x36b>
c0102644:	83 ec 04             	sub    $0x4,%esp
c0102647:	6a 01                	push   $0x1
c0102649:	6a 0a                	push   $0xa
c010264b:	ff 75 e0             	push   -0x20(%ebp)
c010264e:	e8 58 fc ff ff       	call   c01022ab <_ZL12print_numberlib>
c0102653:	83 c4 10             	add    $0x10,%esp
c0102656:	83 f0 01             	xor    $0x1,%eax
c0102659:	84 c0                	test   %al,%al
c010265b:	74 5d                	je     c01026ba <printf+0x35a>
c010265d:	b8 ff ff ff ff       	mov    $0xffffffff,%eax
c0102662:	eb 67                	jmp    c01026cb <printf+0x36b>
c0102664:	8b 45 e8             	mov    -0x18(%ebp),%eax
c0102667:	89 45 08             	mov    %eax,0x8(%ebp)
c010266a:	83 ec 0c             	sub    $0xc,%esp
c010266d:	ff 75 08             	push   0x8(%ebp)
c0102670:	e8 ad 00 00 00       	call   c0102722 <strlen>
c0102675:	83 c4 10             	add    $0x10,%esp
c0102678:	89 45 e4             	mov    %eax,-0x1c(%ebp)
c010267b:	8b 45 ec             	mov    -0x14(%ebp),%eax
c010267e:	3b 45 e4             	cmp    -0x1c(%ebp),%eax
c0102681:	73 07                	jae    c010268a <printf+0x32a>
c0102683:	b8 ff ff ff ff       	mov    $0xffffffff,%eax
c0102688:	eb 41                	jmp    c01026cb <printf+0x36b>
c010268a:	83 ec 08             	sub    $0x8,%esp
c010268d:	ff 75 e4             	push   -0x1c(%ebp)
c0102690:	ff 75 08             	push   0x8(%ebp)
c0102693:	e8 c0 fb ff ff       	call   c0102258 <_ZL5printPKcm>
c0102698:	83 c4 10             	add    $0x10,%esp
c010269b:	83 f0 01             	xor    $0x1,%eax
c010269e:	84 c0                	test   %al,%al
c01026a0:	74 07                	je     c01026a9 <printf+0x349>
c01026a2:	b8 ff ff ff ff       	mov    $0xffffffff,%eax
c01026a7:	eb 22                	jmp    c01026cb <printf+0x36b>
c01026a9:	8b 55 f4             	mov    -0xc(%ebp),%edx
c01026ac:	8b 45 e4             	mov    -0x1c(%ebp),%eax
c01026af:	01 d0                	add    %edx,%eax
c01026b1:	89 45 f4             	mov    %eax,-0xc(%ebp)
c01026b4:	8b 45 e4             	mov    -0x1c(%ebp),%eax
c01026b7:	01 45 08             	add    %eax,0x8(%ebp)
c01026ba:	8b 45 08             	mov    0x8(%ebp),%eax
c01026bd:	0f b6 00             	movzbl (%eax),%eax
c01026c0:	84 c0                	test   %al,%al
c01026c2:	0f 85 b0 fc ff ff    	jne    c0102378 <printf+0x18>
c01026c8:	8b 45 f4             	mov    -0xc(%ebp),%eax
c01026cb:	c9                   	leave  
c01026cc:	c3                   	ret    

c01026cd <putchar>:
c01026cd:	55                   	push   %ebp
c01026ce:	89 e5                	mov    %esp,%ebp
c01026d0:	83 ec 18             	sub    $0x18,%esp
c01026d3:	8b 45 08             	mov    0x8(%ebp),%eax
c01026d6:	88 45 f7             	mov    %al,-0x9(%ebp)
c01026d9:	83 ec 08             	sub    $0x8,%esp
c01026dc:	6a 01                	push   $0x1
c01026de:	8d 45 f7             	lea    -0x9(%ebp),%eax
c01026e1:	50                   	push   %eax
c01026e2:	e8 38 ed ff ff       	call   c010141f <terminal_write>
c01026e7:	83 c4 10             	add    $0x10,%esp
c01026ea:	8b 45 08             	mov    0x8(%ebp),%eax
c01026ed:	c9                   	leave  
c01026ee:	c3                   	ret    

c01026ef <memset>:
c01026ef:	55                   	push   %ebp
c01026f0:	89 e5                	mov    %esp,%ebp
c01026f2:	83 ec 10             	sub    $0x10,%esp
c01026f5:	8b 45 08             	mov    0x8(%ebp),%eax
c01026f8:	89 45 f8             	mov    %eax,-0x8(%ebp)
c01026fb:	c7 45 fc 00 00 00 00 	movl   $0x0,-0x4(%ebp)
c0102702:	eb 11                	jmp    c0102715 <memset+0x26>
c0102704:	8b 55 f8             	mov    -0x8(%ebp),%edx
c0102707:	8b 45 fc             	mov    -0x4(%ebp),%eax
c010270a:	01 d0                	add    %edx,%eax
c010270c:	8b 55 0c             	mov    0xc(%ebp),%edx
c010270f:	88 10                	mov    %dl,(%eax)
c0102711:	83 45 fc 01          	addl   $0x1,-0x4(%ebp)
c0102715:	8b 45 fc             	mov    -0x4(%ebp),%eax
c0102718:	3b 45 10             	cmp    0x10(%ebp),%eax
c010271b:	72 e7                	jb     c0102704 <memset+0x15>
c010271d:	8b 45 08             	mov    0x8(%ebp),%eax
c0102720:	c9                   	leave  
c0102721:	c3                   	ret    

c0102722 <strlen>:
c0102722:	55                   	push   %ebp
c0102723:	89 e5                	mov    %esp,%ebp
c0102725:	83 ec 10             	sub    $0x10,%esp
c0102728:	c7 45 fc 00 00 00 00 	movl   $0x0,-0x4(%ebp)
c010272f:	eb 04                	jmp    c0102735 <strlen+0x13>
c0102731:	83 45 fc 01          	addl   $0x1,-0x4(%ebp)
c0102735:	8b 55 08             	mov    0x8(%ebp),%edx
c0102738:	8b 45 fc             	mov    -0x4(%ebp),%eax
c010273b:	01 d0                	add    %edx,%eax
c010273d:	0f b6 00             	movzbl (%eax),%eax
c0102740:	84 c0                	test   %al,%al
c0102742:	75 ed                	jne    c0102731 <strlen+0xf>
c0102744:	8b 45 fc             	mov    -0x4(%ebp),%eax
c0102747:	c9                   	leave  
c0102748:	c3                   	ret    
c0102749:	66 90                	xchg   %ax,%ax
c010274b:	66 90                	xchg   %ax,%ax
c010274d:	66 90                	xchg   %ax,%ax
c010274f:	90                   	nop

c0102750 <__do_global_ctors_aux>:
c0102750:	a1 0c 40 10 c0       	mov    0xc010400c,%eax
c0102755:	83 f8 ff             	cmp    $0xffffffff,%eax
c0102758:	74 2e                	je     c0102788 <__do_global_ctors_aux+0x38>
c010275a:	55                   	push   %ebp
c010275b:	89 e5                	mov    %esp,%ebp
c010275d:	53                   	push   %ebx
c010275e:	bb 0c 40 10 c0       	mov    $0xc010400c,%ebx
c0102763:	83 ec 04             	sub    $0x4,%esp
c0102766:	2e 8d b4 26 00 00 00 	lea    %cs:0x0(%esi,%eiz,1),%esi
c010276d:	00 
c010276e:	66 90                	xchg   %ax,%ax
c0102770:	ff d0                	call   *%eax
c0102772:	8b 43 fc             	mov    -0x4(%ebx),%eax
c0102775:	83 eb 04             	sub    $0x4,%ebx
c0102778:	83 f8 ff             	cmp    $0xffffffff,%eax
c010277b:	75 f3                	jne    c0102770 <__do_global_ctors_aux+0x20>
c010277d:	8b 5d fc             	mov    -0x4(%ebp),%ebx
c0102780:	c9                   	leave  
c0102781:	c3                   	ret    
c0102782:	8d b6 00 00 00 00    	lea    0x0(%esi),%esi
c0102788:	c3                   	ret    
c0102789:	66 90                	xchg   %ax,%ax
c010278b:	90                   	nop

c010278c <isr_stub_0>:
c010278c:	e8 3c ee ff ff       	call   c01015cd <exception_handler>
c0102791:	cf                   	iret   

c0102792 <isr_stub_1>:
c0102792:	e8 36 ee ff ff       	call   c01015cd <exception_handler>
c0102797:	cf                   	iret   

c0102798 <isr_stub_2>:
c0102798:	e8 30 ee ff ff       	call   c01015cd <exception_handler>
c010279d:	cf                   	iret   

c010279e <isr_stub_3>:
c010279e:	e8 2a ee ff ff       	call   c01015cd <exception_handler>
c01027a3:	cf                   	iret   

c01027a4 <isr_stub_4>:
c01027a4:	e8 24 ee ff ff       	call   c01015cd <exception_handler>
c01027a9:	cf                   	iret   

c01027aa <isr_stub_5>:
c01027aa:	e8 1e ee ff ff       	call   c01015cd <exception_handler>
c01027af:	cf                   	iret   

c01027b0 <isr_stub_6>:
c01027b0:	e8 18 ee ff ff       	call   c01015cd <exception_handler>
c01027b5:	cf                   	iret   

c01027b6 <isr_stub_7>:
c01027b6:	e8 12 ee ff ff       	call   c01015cd <exception_handler>
c01027bb:	cf                   	iret   

c01027bc <isr_stub_8>:
c01027bc:	e8 0c ee ff ff       	call   c01015cd <exception_handler>
c01027c1:	cf                   	iret   

c01027c2 <isr_stub_9>:
c01027c2:	e8 06 ee ff ff       	call   c01015cd <exception_handler>
c01027c7:	cf                   	iret   

c01027c8 <isr_stub_10>:
c01027c8:	e8 00 ee ff ff       	call   c01015cd <exception_handler>
c01027cd:	cf                   	iret   

c01027ce <isr_stub_11>:
c01027ce:	e8 fa ed ff ff       	call   c01015cd <exception_handler>
c01027d3:	cf                   	iret   

c01027d4 <isr_stub_12>:
c01027d4:	e8 f4 ed ff ff       	call   c01015cd <exception_handler>
c01027d9:	cf                   	iret   

c01027da <isr_stub_13>:
c01027da:	e8 ee ed ff ff       	call   c01015cd <exception_handler>
c01027df:	cf                   	iret   

c01027e0 <isr_stub_14>:
c01027e0:	e8 e8 ed ff ff       	call   c01015cd <exception_handler>
c01027e5:	cf                   	iret   

c01027e6 <isr_stub_15>:
c01027e6:	e8 e2 ed ff ff       	call   c01015cd <exception_handler>
c01027eb:	cf                   	iret   

c01027ec <isr_stub_16>:
c01027ec:	e8 dc ed ff ff       	call   c01015cd <exception_handler>
c01027f1:	cf                   	iret   

c01027f2 <isr_stub_17>:
c01027f2:	e8 d6 ed ff ff       	call   c01015cd <exception_handler>
c01027f7:	cf                   	iret   

c01027f8 <isr_stub_18>:
c01027f8:	e8 d0 ed ff ff       	call   c01015cd <exception_handler>
c01027fd:	cf                   	iret   

c01027fe <isr_stub_19>:
c01027fe:	e8 ca ed ff ff       	call   c01015cd <exception_handler>
c0102803:	cf                   	iret   

c0102804 <isr_stub_20>:
c0102804:	e8 c4 ed ff ff       	call   c01015cd <exception_handler>
c0102809:	cf                   	iret   

c010280a <isr_stub_21>:
c010280a:	e8 be ed ff ff       	call   c01015cd <exception_handler>
c010280f:	cf                   	iret   

c0102810 <isr_stub_22>:
c0102810:	e8 b8 ed ff ff       	call   c01015cd <exception_handler>
c0102815:	cf                   	iret   

c0102816 <isr_stub_23>:
c0102816:	e8 b2 ed ff ff       	call   c01015cd <exception_handler>
c010281b:	cf                   	iret   

c010281c <isr_stub_24>:
c010281c:	e8 ac ed ff ff       	call   c01015cd <exception_handler>
c0102821:	cf                   	iret   

c0102822 <isr_stub_25>:
c0102822:	e8 a6 ed ff ff       	call   c01015cd <exception_handler>
c0102827:	cf                   	iret   

c0102828 <isr_stub_26>:
c0102828:	e8 a0 ed ff ff       	call   c01015cd <exception_handler>
c010282d:	cf                   	iret   

c010282e <isr_stub_27>:
c010282e:	e8 9a ed ff ff       	call   c01015cd <exception_handler>
c0102833:	cf                   	iret   

c0102834 <isr_stub_28>:
c0102834:	e8 94 ed ff ff       	call   c01015cd <exception_handler>
c0102839:	cf                   	iret   

c010283a <isr_stub_29>:
c010283a:	e8 8e ed ff ff       	call   c01015cd <exception_handler>
c010283f:	cf                   	iret   

c0102840 <isr_stub_30>:
c0102840:	e8 88 ed ff ff       	call   c01015cd <exception_handler>
c0102845:	cf                   	iret   

c0102846 <isr_stub_31>:
c0102846:	e8 82 ed ff ff       	call   c01015cd <exception_handler>
c010284b:	cf                   	iret   

c010284c <isr_stub_table>:
c010284c:	8c 27                	mov    %fs,(%edi)
c010284e:	10 c0                	adc    %al,%al
c0102850:	92                   	xchg   %eax,%edx
c0102851:	27                   	daa    
c0102852:	10 c0                	adc    %al,%al
c0102854:	98                   	cwtl   
c0102855:	27                   	daa    
c0102856:	10 c0                	adc    %al,%al
c0102858:	9e                   	sahf   
c0102859:	27                   	daa    
c010285a:	10 c0                	adc    %al,%al
c010285c:	a4                   	movsb  %ds:(%esi),%es:(%edi)
c010285d:	27                   	daa    
c010285e:	10 c0                	adc    %al,%al
c0102860:	aa                   	stos   %al,%es:(%edi)
c0102861:	27                   	daa    
c0102862:	10 c0                	adc    %al,%al
c0102864:	b0 27                	mov    $0x27,%al
c0102866:	10 c0                	adc    %al,%al
c0102868:	b6 27                	mov    $0x27,%dh
c010286a:	10 c0                	adc    %al,%al
c010286c:	bc 27 10 c0 c2       	mov    $0xc2c01027,%esp
c0102871:	27                   	daa    
c0102872:	10 c0                	adc    %al,%al
c0102874:	c8 27 10 c0          	enter  $0x1027,$0xc0
c0102878:	ce                   	into   
c0102879:	27                   	daa    
c010287a:	10 c0                	adc    %al,%al
c010287c:	d4 27                	aam    $0x27
c010287e:	10 c0                	adc    %al,%al
c0102880:	da 27                	fisubl (%edi)
c0102882:	10 c0                	adc    %al,%al
c0102884:	e0 27                	loopne c01028ad <isr_stub_table+0x61>
c0102886:	10 c0                	adc    %al,%al
c0102888:	e6 27                	out    %al,$0x27
c010288a:	10 c0                	adc    %al,%al
c010288c:	ec                   	in     (%dx),%al
c010288d:	27                   	daa    
c010288e:	10 c0                	adc    %al,%al
c0102890:	f2 27                	repnz daa 
c0102892:	10 c0                	adc    %al,%al
c0102894:	f8                   	clc    
c0102895:	27                   	daa    
c0102896:	10 c0                	adc    %al,%al
c0102898:	fe                   	(bad)  
c0102899:	27                   	daa    
c010289a:	10 c0                	adc    %al,%al
c010289c:	04 28                	add    $0x28,%al
c010289e:	10 c0                	adc    %al,%al
c01028a0:	0a 28                	or     (%eax),%ch
c01028a2:	10 c0                	adc    %al,%al
c01028a4:	10 28                	adc    %ch,(%eax)
c01028a6:	10 c0                	adc    %al,%al
c01028a8:	16                   	push   %ss
c01028a9:	28 10                	sub    %dl,(%eax)
c01028ab:	c0 1c 28 10          	rcrb   $0x10,(%eax,%ebp,1)
c01028af:	c0 22 28             	shlb   $0x28,(%edx)
c01028b2:	10 c0                	adc    %al,%al
c01028b4:	28 28                	sub    %ch,(%eax)
c01028b6:	10 c0                	adc    %al,%al
c01028b8:	2e 28 10             	sub    %dl,%cs:(%eax)
c01028bb:	c0 34 28 10          	shlb   $0x10,(%eax,%ebp,1)
c01028bf:	c0 3a 28             	sarb   $0x28,(%edx)
c01028c2:	10 c0                	adc    %al,%al
c01028c4:	40                   	inc    %eax
c01028c5:	28 10                	sub    %dl,(%eax)
c01028c7:	c0 46 28 10          	rolb   $0x10,0x28(%esi)
c01028cb:	c0             	shrb   $0xe8,0x0(%edx)

c01028cc <irq_stub_0>:
c01028cc:	6a 00                	push   $0x0
c01028ce:	e8 02 ed ff ff       	call   c01015d5 <irq_handler>
c01028d3:	83 c4 04             	add    $0x4,%esp
c01028d6:	cf                   	iret   

c01028d7 <irq_stub_1>:
c01028d7:	6a 01                	push   $0x1
c01028d9:	e8 f7 ec ff ff       	call   c01015d5 <irq_handler>
c01028de:	83 c4 04             	add    $0x4,%esp
c01028e1:	cf                   	iret   

c01028e2 <irq_stub_2>:
c01028e2:	6a 02                	push   $0x2
c01028e4:	e8 ec ec ff ff       	call   c01015d5 <irq_handler>
c01028e9:	83 c4 04             	add    $0x4,%esp
c01028ec:	cf                   	iret   

c01028ed <irq_stub_3>:
c01028ed:	6a 03                	push   $0x3
c01028ef:	e8 e1 ec ff ff       	call   c01015d5 <irq_handler>
c01028f4:	83 c4 04             	add    $0x4,%esp
c01028f7:	cf                   	iret   

c01028f8 <irq_stub_4>:
c01028f8:	6a 04                	push   $0x4
c01028fa:	e8 d6 ec ff ff       	call   c01015d5 <irq_handler>
c01028ff:	83 c4 04             	add    $0x4,%esp
c0102902:	cf                   	iret   

c0102903 <irq_stub_5>:
c0102903:	6a 05                	push   $0x5
c0102905:	e8 cb ec ff ff       	call   c01015d5 <irq_handler>
c010290a:	83 c4 04             	add    $0x4,%esp
c010290d:	cf                   	iret   

c010290e <irq_stub_6>:
c010290e:	6a 06                	push   $0x6
c0102910:	e8 c0 ec ff ff       	call   c01015d5 <irq_handler>
c0102915:	83 c4 04             	add    $0x4,%esp
c0102918:	cf                   	iret   

c0102919 <irq_stub_7>:
c0102919:	6a 07                	push   $0x7
c010291b:	e8 b5 ec ff ff       	call   c01015d5 <irq_handler>
c0102920:	83 c4 04             	add    $0x4,%esp
c0102923:	cf                   	iret   

c0102924 <irq_stub_8>:
c0102924:	6a 08                	push   $0x8
c0102926:	e8 aa ec ff ff       	call   c01015d5 <irq_handler>
c010292b:	83 c4 04             	add    $0x4,%esp
c010292e:	cf                   	iret   

c010292f <irq_stub_9>:
c010292f:	6a 09                	push   $0x9
c0102931:	e8 9f ec ff ff       	call   c01015d5 <irq_handler>
c0102936:	83 c4 04             	add    $0x4,%esp
c0102939:	cf                   	iret   

c010293a <irq_stub_10>:
c010293a:	6a 0a                	push   $0xa
c010293c:	e8 94 ec ff ff       	call   c01015d5 <irq_handler>
c0102941:	83 c4 04             	add    $0x4,%esp
c0102944:	cf                   	iret   

c0102945 <irq_stub_11>:
c0102945:	6a 0b                	push   $0xb
c0102947:	e8 89 ec ff ff       	call   c01015d5 <irq_handler>
c010294c:	83 c4 04             	add    $0x4,%esp
c010294f:	cf                   	iret   

c0102950 <irq_stub_12>:
c0102950:	6a 0c                	push   $0xc
c0102952:	e8 7e ec ff ff       	call   c01015d5 <irq_handler>
c0102957:	83 c4 04             	add    $0x4,%esp
c010295a:	cf                   	iret   

c010295b <irq_stub_13>:
c010295b:	6a 0d                	push   $0xd
c010295d:	e8 73 ec ff ff       	call   c01015d5 <irq_handler>
c0102962:	83 c4 04             	add    $0x4,%esp
c0102965:	cf                   	iret   

c0102966 <irq_stub_14>:
c0102966:	6a 0e                	push   $0xe
c0102968:	e8 68 ec ff ff       	call   c01015d5 <irq_handler>
c010296d:	83 c4 04             	add    $0x4,%esp
c0102970:	cf                   	iret   

c0102971 <irq_stub_15>:
c0102971:	6a 0f                	push   $0xf
c0102973:	e8 5d ec ff ff       	call   c01015d5 <irq_handler>
c0102978:	83 c4 04             	add    $0x4,%esp
c010297b:	cf                   	iret   

c010297c <irq_stub_table>:
c010297c:	cc                   	int3   
c010297d:	28 10                	sub    %dl,(%eax)
c010297f:	c0 d7 28             	rcl    $0x28,%bh
c0102982:	10 c0                	adc    %al,%al
c0102984:	e2 28                	loop   c01029ae <irq_stub_table+0x32>
c0102986:	10 c0                	adc    %al,%al
c0102988:	ed                   	in     (%dx),%eax
c0102989:	28 10                	sub    %dl,(%eax)
c010298b:	c0 f8 28             	sar    $0x28,%al
c010298e:	10 c0                	adc    %al,%al
c0102990:	03 29                	add    (%ecx),%ebp
c0102992:	10 c0                	adc    %al,%al
c0102994:	0e                   	push   %cs
c0102995:	29 10                	sub    %edx,(%eax)
c0102997:	c0 19 29             	rcrb   $0x29,(%ecx)
c010299a:	10 c0                	adc    %al,%al
c010299c:	24 29                	and    $0x29,%al
c010299e:	10 c0                	adc    %al,%al
c01029a0:	2f                   	das    
c01029a1:	29 10                	sub    %edx,(%eax)
c01029a3:	c0 3a 29             	sarb   $0x29,(%edx)
c01029a6:	10 c0                	adc    %al,%al
c01029a8:	45                   	inc    %ebp
c01029a9:	29 10                	sub    %edx,(%eax)
c01029ab:	c0 50 29 10          	rclb   $0x10,0x29(%eax)
c01029af:	c0 5b 29 10          	rcrb   $0x10,0x29(%ebx)
c01029b3:	c0 66 29 10          	shlb   $0x10,0x29(%esi)
c01029b7:	c0 71 29 10          	shlb   $0x10,0x29(%ecx)
c01029bb:	c0                   	.byte 0xc0

Disassembly of section .init:

c01029bc <_init>:
c01029bc:	55                   	push   %ebp
c01029bd:	89 e5                	mov    %esp,%ebp
c01029bf:	e8 3c e7 ff ff       	call   c0101100 <frame_dummy>
c01029c4:	e8 87 fd ff ff       	call   c0102750 <__do_global_ctors_aux>
c01029c9:	5d                   	pop    %ebp
c01029ca:	c3                   	ret    

Disassembly of section .fini:

c01029cb <_fini>:
c01029cb:	55                   	push   %ebp
c01029cc:	89 e5                	mov    %esp,%ebp
c01029ce:	e8 ad e6 ff ff       	call   c0101080 <__do_global_dtors_aux>
c01029d3:	5d                   	pop    %ebp
c01029d4:	c3                   	ret    

Disassembly of section .text._ZN4APIC9write_msrEmmm:

c01029d5 <_ZN4APIC9write_msrEmmm>:
c01029d5:	55                   	push   %ebp
c01029d6:	89 e5                	mov    %esp,%ebp
c01029d8:	8b 4d 08             	mov    0x8(%ebp),%ecx
c01029db:	8b 45 0c             	mov    0xc(%ebp),%eax
c01029de:	8b 55 10             	mov    0x10(%ebp),%edx
c01029e1:	0f 30                	wrmsr  
c01029e3:	90                   	nop
c01029e4:	5d                   	pop    %ebp
c01029e5:	c3                   	ret    

Disassembly of section .text._ZN4APIC8read_msrEmPmS0_:

c01029e6 <_ZN4APIC8read_msrEmPmS0_>:
c01029e6:	55                   	push   %ebp
c01029e7:	89 e5                	mov    %esp,%ebp
c01029e9:	8b 45 08             	mov    0x8(%ebp),%eax
c01029ec:	89 c1                	mov    %eax,%ecx
c01029ee:	0f 32                	rdmsr  
c01029f0:	89 c1                	mov    %eax,%ecx
c01029f2:	8b 45 0c             	mov    0xc(%ebp),%eax
c01029f5:	89 08                	mov    %ecx,(%eax)
c01029f7:	8b 45 10             	mov    0x10(%ebp),%eax
c01029fa:	89 10                	mov    %edx,(%eax)
c01029fc:	90                   	nop
c01029fd:	5d                   	pop    %ebp
c01029fe:	c3                   	ret    
